ARM GAS  C:\Users\bscj\AppData\Local\Temp\cceFw1QO.s 			page 1


   1              		.syntax unified
   2              		.cpu cortex-m3
   3              		.fpu softvfp
   4              		.eabi_attribute 20, 1
   5              		.eabi_attribute 21, 1
   6              		.eabi_attribute 23, 3
   7              		.eabi_attribute 24, 1
   8              		.eabi_attribute 25, 1
   9              		.eabi_attribute 26, 1
  10              		.eabi_attribute 30, 1
  11              		.eabi_attribute 34, 1
  12              		.eabi_attribute 18, 4
  13              		.thumb
  14              		.syntax unified
  15              		.file	"main.c"
  16              		.text
  17              	.Ltext0:
  18              		.cfi_sections	.debug_frame
  19              		.section	.text.TX_ISR_vect,"ax",%progbits
  20              		.align	2
  21              		.global	TX_ISR_vect
  22              		.thumb
  23              		.thumb_func
  24              		.type	TX_ISR_vect, %function
  25              	TX_ISR_vect:
  26              	.LFB72:
  27              		.file 1 "main.c"
   1:main.c        **** /* ========================================
   2:main.c        ****  *
   3:main.c        ****  * SOCCER ROBOT EMBEDDED CODE
   4:main.c        ****  * VERSION 1.0
   5:main.c        ****  * COMPILED FOR THE PsOC 5LP PROTOTYPING KIT
   6:main.c        ****  * CY8CKIT-059 WHICH IS A CY8C5888LTI-LP097 DEVICE
   7:main.c        ****  *
   8:main.c        ****  * AUTHORED BY CURTIS HAYDON, JUSTIN YE 
   9:main.c        ****  * January / February 2021
  10:main.c        ****  *
  11:main.c        ****  * ========================================
  12:main.c        ****  */
  13:main.c        **** /* TO FIND MORE ON DOUBLE BUFFERING UART SEE https://www.allaboutcircuits.com/technical-articles/ua
  14:main.c        ****    This source is potentially useful as well https://community.cypress.com/t5/PSoC-5-3-1-MCU/UART-I
  15:main.c        **** #include "project.h"
  16:main.c        **** #include "encoder.h"
  17:main.c        **** #include "robotmove.h"
  18:main.c        **** #include "robot_ID.h"
  19:main.c        **** #include <stdio.h>
  20:main.c        **** #include <stdbool.h>
  21:main.c        **** #include <string.h>
  22:main.c        **** #include <stdlib.h>
  23:main.c        **** /* *********************************************** */
  24:main.c        **** /* ************USER DEFINED MACROS**************** */
  25:main.c        **** /* *********************************************** */
  26:main.c        **** //Parameters for global variables
  27:main.c        **** #define ENCODER_TIMER_ARRAY_SIZE 5
  28:main.c        **** #define STR_LEN_MAX 100 //Provides an extra 52 bytes in case Zigbee writes to the input buffer fast
  29:main.c        **** #define TRANSMISSION_STR_LENGTH 48 //Length of each completed transmitted string from the PC
  30:main.c        **** #define ANG_V_SCALING_FACTOR 64  //Transmitted bytes for the angular velocity are scaled up by this
ARM GAS  C:\Users\bscj\AppData\Local\Temp\cceFw1QO.s 			page 2


  31:main.c        **** #define LIN_V_SCALING_FACTOR 2048 //Transmitted bytes for the linear velocity are scaled up by this
  32:main.c        **** #define TRANSMISSION_PKT_SIZE 48 //The transmitted packet is this many bytes long
  33:main.c        **** 
  34:main.c        **** //Robot Hardware parameters
  35:main.c        **** #define ROBOT_WIDTH 0.1 //Measured in meters
  36:main.c        **** #define ENCODER_COUNTS 11 //Encoder pulses generated in a full 360 rotation
  37:main.c        **** #define WHEEL_DIAMETER 0.1 //Measured in meters
  38:main.c        **** #define GEAR_RATIO 8 //Large gear teeth / small gear teeth.  Number of turns of the motor shaft whi
  39:main.c        **** #define MOTOR_MAX_RPM 11600 //Motor rated operating speed.  This is the maximum angv the motor will
  40:main.c        **** 
  41:main.c        **** //Encoder parameters
  42:main.c        **** #define CLOCKWISE 1
  43:main.c        **** #define ANTICLOCKWISE 0
  44:main.c        **** 
  45:main.c        **** //PID parameters
  46:main.c        **** #define Pgain_linv 1 //Proportional gain for linear velocity
  47:main.c        **** #define Dgain_linv 0 //Differential gain for linear velocity
  48:main.c        **** #define Igain_linv 0 //Integral gain for linear velocity
  49:main.c        **** 
  50:main.c        **** #define Pgain_angv 1 //Proportional gain for angular velocity
  51:main.c        **** #define Dgain_angv 0 //Differential gain for angular velocity
  52:main.c        **** #define Igain_angv 0 //Integral gain for angular velocity
  53:main.c        **** 
  54:main.c        **** /* *********************************************** */
  55:main.c        **** /* ***************GLOBAL VARIABLES**************** */
  56:main.c        **** /* *********************************************** */
  57:main.c        **** //Receive double buffering
  58:main.c        **** //Initially buffer_1 will be pointed to by the receive pointer, and buffer 2
  59:main.c        **** //will be pointed to by the processing buffer pointer
  60:main.c        **** volatile char buffer_1[STR_LEN_MAX] = {};
  61:main.c        **** volatile char buffer_2[STR_LEN_MAX]={};
  62:main.c        **** volatile char *receiving_buffer_ptr;
  63:main.c        **** volatile char *processing_buffer_ptr;
  64:main.c        **** volatile uint8_t rx_buffer_size = 0;
  65:main.c        **** 
  66:main.c        **** //Encoder variables
  67:main.c        **** //For storing multiple historic encoder timer values for accurate speed calculations
  68:main.c        **** volatile uint16_t timerL0_count[ENCODER_TIMER_ARRAY_SIZE] = {};
  69:main.c        **** volatile uint16_t timerR0_count[ENCODER_TIMER_ARRAY_SIZE] = {};
  70:main.c        **** 
  71:main.c        **** //Indicates which times to disregard if the timer has overflowed 
  72:main.c        **** volatile bool timerL0_overflows[ENCODER_TIMER_ARRAY_SIZE] = {};
  73:main.c        **** volatile bool timerR0_overflows[ENCODER_TIMER_ARRAY_SIZE] = {};
  74:main.c        **** 
  75:main.c        **** //For accessing the global count and overflow arrays above
  76:main.c        **** volatile uint8_t timerL0_index = 0;
  77:main.c        **** volatile uint8_t timerR0_index = 0;
  78:main.c        **** 
  79:main.c        **** //For indicating the measured wheel turning direction
  80:main.c        **** volatile bool R_direction = CLOCKWISE;
  81:main.c        **** volatile bool L_direction = CLOCKWISE;
  82:main.c        **** 
  83:main.c        **** //For PID control
  84:main.c        **** PID_DATA pid_linv;
  85:main.c        **** PID_DATA pid_angv;
  86:main.c        **** /* *********************************************** */
  87:main.c        **** /* ************USER DEFINED DATATYPES************* */
ARM GAS  C:\Users\bscj\AppData\Local\Temp\cceFw1QO.s 			page 3


  88:main.c        **** /* *********************************************** */
  89:main.c        **** typedef struct{
  90:main.c        ****     double linv, angv;
  91:main.c        **** } ROBOT_COMMAND;
  92:main.c        **** //Note: PID_DATA is defined in robotmove.h
  93:main.c        **** 
  94:main.c        **** /* *********************************************** */
  95:main.c        **** /* ************USER DEFINED FUNCTIONS************* */
  96:main.c        **** /* *********************************************** */
  97:main.c        **** 
  98:main.c        **** CY_ISR_PROTO(ENCODER_R0_OVF_ISR_vect);
  99:main.c        **** CY_ISR_PROTO(ENCODER_L0_OVF_ISR_vect);
 100:main.c        **** CY_ISR_PROTO(ENC_R0_ISR_vect);
 101:main.c        **** CY_ISR_PROTO(ENC_L0_ISR_vect);
 102:main.c        **** CY_ISR_PROTO(ENC_L1_ISR_vect);
 103:main.c        **** CY_ISR_PROTO(ENC_R1_ISR_vect);
 104:main.c        **** CY_ISR_PROTO(TX_ISR_vect);
 105:main.c        **** CY_ISR_PROTO(RX_ISR_vect);
 106:main.c        **** 
 107:main.c        **** /* USBUART INTERFACE */
 108:main.c        **** /* Function: usbPutString
 109:main.c        ****  * Purpose: Puts the input string into the USBUART data buffer once the CDC is ready
 110:main.c        ****  *          If the string is longer than 64 characters it is truncated at 63 as USB restricts 
 111:main.c        ****  *          data packets to 64 characters long (inserting the NULL character at the end)
 112:main.c        ****  *          The final character [63] is a ! to warn the user
 113:main.c        ****  * Inputs:  char *string - the input character string
 114:main.c        ****  * Outputs: None             
 115:main.c        ****  */
 116:main.c        **** void usbPutString(char *string){
 117:main.c        ****     while(USBUART_CDCIsReady() == 0);
 118:main.c        ****     string[63] = '\0';
 119:main.c        ****     string[62] = '!';
 120:main.c        ****     USBUART_PutData((uint8*)string,strlen(string));    
 121:main.c        **** }
 122:main.c        **** /* Function: usbPutChar
 123:main.c        ****  * Purpose: Puts the input character into the USBUART data buffer once the CDC is ready
 124:main.c        ****  * Inputs:  char c - the input character
 125:main.c        ****  * Outputs: None             
 126:main.c        ****  */
 127:main.c        **** void usbPutChar(char c){
 128:main.c        ****     while(USBUART_CDCIsReady() == 0);
 129:main.c        ****     USBUART_PutChar(c);   
 130:main.c        **** }
 131:main.c        **** 
 132:main.c        **** /* *********************************************** */
 133:main.c        **** /* ***********INTERRUPT SERVICE ROUTINES********** */
 134:main.c        **** /* *********************************************** */
 135:main.c        **** //Encoder timer ISRS
 136:main.c        **** 
 137:main.c        **** /* ISR: ENCODER_R0_OVF_ISR_vect
 138:main.c        ****  * Purpose: Set the bit corresponding to the R encoder timer measurement that the timer has
 139:main.c        ****  *          overflowed, allowing the get_velocity function to determine a speed of 0 rad/s
 140:main.c        ****  * Modifies: bool timerR0_overflows[] -  indicates which readings in timerR0_count[] that didn't 
 141:main.c        ****  *                                      measure an overflow of the counter
 142:main.c        ****  *                      
 143:main.c        ****  */
 144:main.c        **** CY_ISR(ENCODER_R0_OVF_ISR_vect){
ARM GAS  C:\Users\bscj\AppData\Local\Temp\cceFw1QO.s 			page 4


 145:main.c        ****     //Ensure R0 index is in correct range
 146:main.c        ****     if(timerR0_index > ENCODER_TIMER_ARRAY_SIZE - 1){
 147:main.c        ****         timerR0_index = 0;    
 148:main.c        ****     }
 149:main.c        ****     timerR0_overflows[timerR0_index] = true;
 150:main.c        ****     //Stop the timer until the next pulse is detected
 151:main.c        ****     Encoder_R0_Timer_Stop();
 152:main.c        **** }
 153:main.c        **** 
 154:main.c        **** /* ISR: ENCODER_L0_OVF_ISR_vect
 155:main.c        ****  * Purpose: Set the bit corresponding to the R encoder timer measurement that the timer has
 156:main.c        ****  *          overflowed, allowing the get_velocity function to determine a speed of 0 rad/s
 157:main.c        ****  * Modifies: bool timerL0_overflows[] -  indicates which readings in timerR0_count[] that didn't 
 158:main.c        ****  *                                      measure an overflow of the counter
 159:main.c        ****  *                      
 160:main.c        ****  */
 161:main.c        **** CY_ISR(ENCODER_L0_OVF_ISR_vect){
 162:main.c        ****     //Ensure L0 index is in correct range
 163:main.c        ****     if(timerL0_index > ENCODER_TIMER_ARRAY_SIZE - 1){
 164:main.c        ****         timerL0_index = 0;    
 165:main.c        ****     }
 166:main.c        ****     timerL0_overflows[timerL0_index] = true;
 167:main.c        ****     //Stop the timer until the next pulse is detected
 168:main.c        ****     Encoder_L0_Timer_Stop();
 169:main.c        **** }
 170:main.c        **** 
 171:main.c        **** //Encoder pin ISRS
 172:main.c        **** /* ISR: ENC_R0_ISR_vect
 173:main.c        ****  * Purpose: Store the capture value in the timer FIFO into timerR0_count
 174:main.c        ****  *          If the timer had overflowed during the time the period is stored
 175:main.c        ****  *          Restart the timer once this is complete
 176:main.c        ****  * Modifies: bool timerR0_count[] - the timer count recorded between adjacent encoder
 177:main.c        ****  *                                  pulse rising edges on the left wheel.
 178:main.c        ****  *           uint8_t timerR0_index - the index is updated                      
 179:main.c        ****  */
 180:main.c        **** CY_ISR(ENC_R0_ISR_vect){
 181:main.c        ****     if(timerR0_index > ENCODER_TIMER_ARRAY_SIZE - 1){
 182:main.c        ****         timerR0_index = 0;   
 183:main.c        ****     }
 184:main.c        ****     uint16_t timer_period = Encoder_R0_Timer_ReadPeriod();
 185:main.c        ****     if(timerR0_overflows[timerR0_index] == false){
 186:main.c        ****         //If the timer has not overflowed, store the capture value
 187:main.c        ****         timerR0_count[timerR0_index] = timer_period - Encoder_R0_Timer_ReadCapture();
 188:main.c        ****     } else {
 189:main.c        ****         //Otherwise store the period time of the timer
 190:main.c        ****         timerR0_count[timerR0_index] = timer_period;
 191:main.c        ****     }
 192:main.c        ****     //Clear the FIFO timer buffer
 193:main.c        ****     Encoder_R0_Timer_ClearFIFO();
 194:main.c        ****     //Re-load the timer period into the count register to restart the timer
 195:main.c        ****     Encoder_R0_Timer_Stop();
 196:main.c        ****     Encoder_R0_Timer_WriteCounter(timer_period);
 197:main.c        ****     
 198:main.c        ****     if(timerR0_index < ENCODER_TIMER_ARRAY_SIZE - 1){
 199:main.c        ****         timerR0_index++;   
 200:main.c        ****     } else {
 201:main.c        ****         timerR0_index = 0;   
ARM GAS  C:\Users\bscj\AppData\Local\Temp\cceFw1QO.s 			page 5


 202:main.c        ****     }
 203:main.c        ****     //Initialise the overflow entry and start the timer
 204:main.c        ****     timerR0_overflows[timerR0_index] = false;    
 205:main.c        ****     Encoder_R0_Timer_Start();
 206:main.c        **** }
 207:main.c        **** 
 208:main.c        **** /* ISR: ENC_L0_ISR_vect
 209:main.c        ****  * Purpose: Store the capture value in the timer FIFO into timerL0_count
 210:main.c        ****  *          If the timer had overflowed during the time the period is stored
 211:main.c        ****  *          Restart the timer once this is complete
 212:main.c        ****  * Modifies: bool timerL0_count[] - the timer count recorded between adjacent encoder
 213:main.c        ****  *                                  pulse rising edges on the left wheel.
 214:main.c        ****  *           uint8_t timerL0_index - the index is updated                      
 215:main.c        ****  */
 216:main.c        **** CY_ISR(ENC_L0_ISR_vect){
 217:main.c        ****     if(timerL0_index > ENCODER_TIMER_ARRAY_SIZE - 1){
 218:main.c        ****         timerL0_index = 0;   
 219:main.c        ****     }
 220:main.c        ****     uint16_t timer_period = Encoder_L0_Timer_ReadPeriod();
 221:main.c        ****     if(timerL0_overflows[timerL0_index] == false){
 222:main.c        ****         //If the timer has not overflowed, store the capture value
 223:main.c        ****         timerL0_count[timerL0_index] = timer_period - Encoder_L0_Timer_ReadCapture();
 224:main.c        ****     } else {
 225:main.c        ****         //Otherwise store the period time of the timer
 226:main.c        ****         timerL0_count[timerL0_index] = timer_period;
 227:main.c        ****     }
 228:main.c        ****     //Clear the FIFO timer buffer
 229:main.c        ****     Encoder_L0_Timer_ClearFIFO();
 230:main.c        ****     //Re-load the timer period into the count register to restart the timer
 231:main.c        ****     Encoder_L0_Timer_Stop();
 232:main.c        ****     Encoder_L0_Timer_WriteCounter(timer_period);
 233:main.c        ****     
 234:main.c        ****     if(timerL0_index < ENCODER_TIMER_ARRAY_SIZE - 1){
 235:main.c        ****         timerL0_index++;   
 236:main.c        ****     } else {
 237:main.c        ****         timerL0_index = 0;   
 238:main.c        ****     }
 239:main.c        ****     //Initialise the overflow entry and start the timer
 240:main.c        ****     timerL0_overflows[timerL0_index] = false;    
 241:main.c        ****     Encoder_L0_Timer_Start();
 242:main.c        **** }
 243:main.c        **** 
 244:main.c        **** /* ISR: ENC_R1_ISR_vect
 245:main.c        ****  * Purpose: Use this to identify which direction the right wheel is turning
 246:main.c        ****  *          This assumes that if R0 has a rising edge before R1, motor is turning clockwise
 247:main.c        ****  *                               R1 has a rising edge before R0, motor is turning anticlockwise
 248:main.c        ****  * Modifies: bool R_direction - 0 - clockwise
 249:main.c        ****  *                              1 - anticlockwise
 250:main.c        ****  */
 251:main.c        **** CY_ISR(ENC_R1_ISR_vect){
 252:main.c        ****     uint8_t encoder_R0_pin_state = Encoder_R0_Read();
 253:main.c        ****     if(encoder_R0_pin_state == 0u){
 254:main.c        ****         //R1 ISR has been triggered before R0.  We will interpret this as the wheel moving 
 255:main.c        ****         //anticlockwise (negative/backwards)
 256:main.c        ****         R_direction = ANTICLOCKWISE;
 257:main.c        ****     } else {
 258:main.c        ****         //R1 was triggered after R0.  Wheel is moving clockwise
ARM GAS  C:\Users\bscj\AppData\Local\Temp\cceFw1QO.s 			page 6


 259:main.c        ****         R_direction = CLOCKWISE;
 260:main.c        ****     }
 261:main.c        ****     //Clear the latched pin events on encoder R1 pin to enable detection of future events
 262:main.c        ****     Encoder_R1_ClearInterrupt();
 263:main.c        **** }
 264:main.c        **** 
 265:main.c        **** /* ISR: ENC_L1_ISR_vect
 266:main.c        ****  * Purpose: Use this to identify which direction the left wheel is turning
 267:main.c        ****  *          This assumes that if L0 has a rising edge before L1, motor is turning clockwise
 268:main.c        ****  *                               L1 has a rising edge before L0, motor is turning anticlockwise
 269:main.c        ****  * Modifies: bool L_direction - 0 - clockwise
 270:main.c        ****  *                              1 - anticlockwise
 271:main.c        ****  */
 272:main.c        **** CY_ISR(ENC_L1_ISR_vect){
 273:main.c        ****     uint8_t encoder_L0_pin_state = Encoder_L0_Read();
 274:main.c        ****     if(encoder_L0_pin_state == 0u){
 275:main.c        ****         //L1 ISR has been triggered before L0.  We will interpret this as the wheel moving 
 276:main.c        ****         //anticlockwise (negative/backwards)
 277:main.c        ****         L_direction = ANTICLOCKWISE;
 278:main.c        ****     } else {
 279:main.c        ****         //L1 was triggered after L0.  Wheel is moving clockwise
 280:main.c        ****         L_direction = CLOCKWISE;
 281:main.c        ****     }
 282:main.c        ****     //Clear the latched pin events on encoder L1 pin to enable detection of future events
 283:main.c        ****     Encoder_L1_ClearInterrupt();
 284:main.c        **** }
 285:main.c        **** 
 286:main.c        **** //USART ISRS
 287:main.c        **** //Currently unused
 288:main.c        **** /* ISR: TX_ISR_vect
 289:main.c        ****  * Purpose: May be used in future to send strings to the host PC with the transmission module
 290:main.c        ****  *          Currently not used.
 291:main.c        ****  *                      
 292:main.c        ****  */
 293:main.c        **** CY_ISR(TX_ISR_vect){
  28              		.loc 1 293 0
  29              		.cfi_startproc
  30              		@ args = 0, pretend = 0, frame = 0
  31              		@ frame_needed = 0, uses_anonymous_args = 0
  32              		@ link register save eliminated.
  33 0000 7047     		bx	lr
  34              		.cfi_endproc
  35              	.LFE72:
  36              		.size	TX_ISR_vect, .-TX_ISR_vect
  37 0002 00BF     		.section	.text.ENCODER_R0_OVF_ISR_vect,"ax",%progbits
  38              		.align	2
  39              		.global	ENCODER_R0_OVF_ISR_vect
  40              		.thumb
  41              		.thumb_func
  42              		.type	ENCODER_R0_OVF_ISR_vect, %function
  43              	ENCODER_R0_OVF_ISR_vect:
  44              	.LFB66:
 144:main.c        ****     //Ensure R0 index is in correct range
  45              		.loc 1 144 0
  46              		.cfi_startproc
  47              		@ args = 0, pretend = 0, frame = 0
  48              		@ frame_needed = 0, uses_anonymous_args = 0
ARM GAS  C:\Users\bscj\AppData\Local\Temp\cceFw1QO.s 			page 7


 144:main.c        ****     //Ensure R0 index is in correct range
  49              		.loc 1 144 0
  50 0000 08B5     		push	{r3, lr}
  51              		.cfi_def_cfa_offset 8
  52              		.cfi_offset 3, -8
  53              		.cfi_offset 14, -4
 146:main.c        ****         timerR0_index = 0;    
  54              		.loc 1 146 0
  55 0002 084B     		ldr	r3, .L5
  56 0004 1B78     		ldrb	r3, [r3]	@ zero_extendqisi2
  57 0006 DBB2     		uxtb	r3, r3
  58 0008 042B     		cmp	r3, #4
  59 000a 02D9     		bls	.L3
 147:main.c        ****     }
  60              		.loc 1 147 0
  61 000c 0022     		movs	r2, #0
  62 000e 054B     		ldr	r3, .L5
  63 0010 1A70     		strb	r2, [r3]
  64              	.L3:
 149:main.c        ****     //Stop the timer until the next pulse is detected
  65              		.loc 1 149 0
  66 0012 044A     		ldr	r2, .L5
  67 0014 1378     		ldrb	r3, [r2]	@ zero_extendqisi2
  68 0016 1344     		add	r3, r3, r2
  69 0018 0122     		movs	r2, #1
  70 001a 1A71     		strb	r2, [r3, #4]
 151:main.c        **** }
  71              		.loc 1 151 0
  72 001c FFF7FEFF 		bl	Encoder_R0_Timer_Stop
  73              	.LVL0:
  74 0020 08BD     		pop	{r3, pc}
  75              	.L6:
  76 0022 00BF     		.align	2
  77              	.L5:
  78 0024 00000000 		.word	.LANCHOR0
  79              		.cfi_endproc
  80              	.LFE66:
  81              		.size	ENCODER_R0_OVF_ISR_vect, .-ENCODER_R0_OVF_ISR_vect
  82              		.section	.text.ENCODER_L0_OVF_ISR_vect,"ax",%progbits
  83              		.align	2
  84              		.global	ENCODER_L0_OVF_ISR_vect
  85              		.thumb
  86              		.thumb_func
  87              		.type	ENCODER_L0_OVF_ISR_vect, %function
  88              	ENCODER_L0_OVF_ISR_vect:
  89              	.LFB67:
 161:main.c        ****     //Ensure L0 index is in correct range
  90              		.loc 1 161 0
  91              		.cfi_startproc
  92              		@ args = 0, pretend = 0, frame = 0
  93              		@ frame_needed = 0, uses_anonymous_args = 0
  94 0000 08B5     		push	{r3, lr}
  95              		.cfi_def_cfa_offset 8
  96              		.cfi_offset 3, -8
  97              		.cfi_offset 14, -4
 163:main.c        ****         timerL0_index = 0;    
  98              		.loc 1 163 0
ARM GAS  C:\Users\bscj\AppData\Local\Temp\cceFw1QO.s 			page 8


  99 0002 084B     		ldr	r3, .L10
 100 0004 5B7A     		ldrb	r3, [r3, #9]	@ zero_extendqisi2
 101 0006 DBB2     		uxtb	r3, r3
 102 0008 042B     		cmp	r3, #4
 103 000a 02D9     		bls	.L8
 164:main.c        ****     }
 104              		.loc 1 164 0
 105 000c 0022     		movs	r2, #0
 106 000e 054B     		ldr	r3, .L10
 107 0010 5A72     		strb	r2, [r3, #9]
 108              	.L8:
 166:main.c        ****     //Stop the timer until the next pulse is detected
 109              		.loc 1 166 0
 110 0012 044A     		ldr	r2, .L10
 111 0014 537A     		ldrb	r3, [r2, #9]	@ zero_extendqisi2
 112 0016 1344     		add	r3, r3, r2
 113 0018 0122     		movs	r2, #1
 114 001a 1A73     		strb	r2, [r3, #12]
 168:main.c        **** }
 115              		.loc 1 168 0
 116 001c FFF7FEFF 		bl	Encoder_L0_Timer_Stop
 117              	.LVL1:
 118 0020 08BD     		pop	{r3, pc}
 119              	.L11:
 120 0022 00BF     		.align	2
 121              	.L10:
 122 0024 00000000 		.word	.LANCHOR0
 123              		.cfi_endproc
 124              	.LFE67:
 125              		.size	ENCODER_L0_OVF_ISR_vect, .-ENCODER_L0_OVF_ISR_vect
 126              		.section	.text.ENC_R0_ISR_vect,"ax",%progbits
 127              		.align	2
 128              		.global	ENC_R0_ISR_vect
 129              		.thumb
 130              		.thumb_func
 131              		.type	ENC_R0_ISR_vect, %function
 132              	ENC_R0_ISR_vect:
 133              	.LFB68:
 180:main.c        ****     if(timerR0_index > ENCODER_TIMER_ARRAY_SIZE - 1){
 134              		.loc 1 180 0
 135              		.cfi_startproc
 136              		@ args = 0, pretend = 0, frame = 0
 137              		@ frame_needed = 0, uses_anonymous_args = 0
 138 0000 70B5     		push	{r4, r5, r6, lr}
 139              		.cfi_def_cfa_offset 16
 140              		.cfi_offset 4, -16
 141              		.cfi_offset 5, -12
 142              		.cfi_offset 6, -8
 143              		.cfi_offset 14, -4
 181:main.c        ****         timerR0_index = 0;   
 144              		.loc 1 181 0
 145 0002 1F4B     		ldr	r3, .L19
 146 0004 1B78     		ldrb	r3, [r3]	@ zero_extendqisi2
 147 0006 DBB2     		uxtb	r3, r3
 148 0008 042B     		cmp	r3, #4
 149 000a 02D9     		bls	.L13
 182:main.c        ****     }
ARM GAS  C:\Users\bscj\AppData\Local\Temp\cceFw1QO.s 			page 9


 150              		.loc 1 182 0
 151 000c 0022     		movs	r2, #0
 152 000e 1C4B     		ldr	r3, .L19
 153 0010 1A70     		strb	r2, [r3]
 154              	.L13:
 184:main.c        ****     if(timerR0_overflows[timerR0_index] == false){
 155              		.loc 1 184 0
 156 0012 FFF7FEFF 		bl	Encoder_R0_Timer_ReadPeriod
 157              	.LVL2:
 158 0016 0446     		mov	r4, r0
 159              	.LVL3:
 185:main.c        ****         //If the timer has not overflowed, store the capture value
 160              		.loc 1 185 0
 161 0018 194A     		ldr	r2, .L19
 162 001a 1378     		ldrb	r3, [r2]	@ zero_extendqisi2
 163 001c 1344     		add	r3, r3, r2
 164 001e 1B79     		ldrb	r3, [r3, #4]	@ zero_extendqisi2
 165 0020 13F0FF0F 		tst	r3, #255
 166 0024 0AD1     		bne	.L14
 187:main.c        ****     } else {
 167              		.loc 1 187 0
 168 0026 1546     		mov	r5, r2
 169 0028 1678     		ldrb	r6, [r2]	@ zero_extendqisi2
 170 002a F6B2     		uxtb	r6, r6
 171 002c FFF7FEFF 		bl	Encoder_R0_Timer_ReadCapture
 172              	.LVL4:
 173 0030 201A     		subs	r0, r4, r0
 174 0032 80B2     		uxth	r0, r0
 175 0034 05EB4605 		add	r5, r5, r6, lsl #1
 176 0038 A882     		strh	r0, [r5, #20]	@ movhi
 177 003a 04E0     		b	.L15
 178              	.LVL5:
 179              	.L14:
 190:main.c        ****     }
 180              		.loc 1 190 0
 181 003c 104B     		ldr	r3, .L19
 182 003e 1A78     		ldrb	r2, [r3]	@ zero_extendqisi2
 183 0040 03EB4203 		add	r3, r3, r2, lsl #1
 184 0044 9882     		strh	r0, [r3, #20]	@ movhi
 185              	.LVL6:
 186              	.L15:
 193:main.c        ****     //Re-load the timer period into the count register to restart the timer
 187              		.loc 1 193 0
 188 0046 FFF7FEFF 		bl	Encoder_R0_Timer_ClearFIFO
 189              	.LVL7:
 195:main.c        ****     Encoder_R0_Timer_WriteCounter(timer_period);
 190              		.loc 1 195 0
 191 004a FFF7FEFF 		bl	Encoder_R0_Timer_Stop
 192              	.LVL8:
 196:main.c        ****     
 193              		.loc 1 196 0
 194 004e 2046     		mov	r0, r4
 195 0050 FFF7FEFF 		bl	Encoder_R0_Timer_WriteCounter
 196              	.LVL9:
 198:main.c        ****         timerR0_index++;   
 197              		.loc 1 198 0
 198 0054 0A4B     		ldr	r3, .L19
ARM GAS  C:\Users\bscj\AppData\Local\Temp\cceFw1QO.s 			page 10


 199 0056 1B78     		ldrb	r3, [r3]	@ zero_extendqisi2
 200 0058 DBB2     		uxtb	r3, r3
 201 005a 032B     		cmp	r3, #3
 202 005c 05D8     		bhi	.L16
 199:main.c        ****     } else {
 203              		.loc 1 199 0
 204 005e 084A     		ldr	r2, .L19
 205 0060 1378     		ldrb	r3, [r2]	@ zero_extendqisi2
 206 0062 0133     		adds	r3, r3, #1
 207 0064 DBB2     		uxtb	r3, r3
 208 0066 1370     		strb	r3, [r2]
 209 0068 02E0     		b	.L17
 210              	.L16:
 201:main.c        ****     }
 211              		.loc 1 201 0
 212 006a 0022     		movs	r2, #0
 213 006c 044B     		ldr	r3, .L19
 214 006e 1A70     		strb	r2, [r3]
 215              	.L17:
 204:main.c        ****     Encoder_R0_Timer_Start();
 216              		.loc 1 204 0
 217 0070 034A     		ldr	r2, .L19
 218 0072 1378     		ldrb	r3, [r2]	@ zero_extendqisi2
 219 0074 1344     		add	r3, r3, r2
 220 0076 0022     		movs	r2, #0
 221 0078 1A71     		strb	r2, [r3, #4]
 205:main.c        **** }
 222              		.loc 1 205 0
 223 007a FFF7FEFF 		bl	Encoder_R0_Timer_Start
 224              	.LVL10:
 225 007e 70BD     		pop	{r4, r5, r6, pc}
 226              	.L20:
 227              		.align	2
 228              	.L19:
 229 0080 00000000 		.word	.LANCHOR0
 230              		.cfi_endproc
 231              	.LFE68:
 232              		.size	ENC_R0_ISR_vect, .-ENC_R0_ISR_vect
 233              		.section	.text.ENC_L0_ISR_vect,"ax",%progbits
 234              		.align	2
 235              		.global	ENC_L0_ISR_vect
 236              		.thumb
 237              		.thumb_func
 238              		.type	ENC_L0_ISR_vect, %function
 239              	ENC_L0_ISR_vect:
 240              	.LFB69:
 216:main.c        ****     if(timerL0_index > ENCODER_TIMER_ARRAY_SIZE - 1){
 241              		.loc 1 216 0
 242              		.cfi_startproc
 243              		@ args = 0, pretend = 0, frame = 0
 244              		@ frame_needed = 0, uses_anonymous_args = 0
 245 0000 70B5     		push	{r4, r5, r6, lr}
 246              		.cfi_def_cfa_offset 16
 247              		.cfi_offset 4, -16
 248              		.cfi_offset 5, -12
 249              		.cfi_offset 6, -8
 250              		.cfi_offset 14, -4
ARM GAS  C:\Users\bscj\AppData\Local\Temp\cceFw1QO.s 			page 11


 217:main.c        ****         timerL0_index = 0;   
 251              		.loc 1 217 0
 252 0002 1F4B     		ldr	r3, .L28
 253 0004 5B7A     		ldrb	r3, [r3, #9]	@ zero_extendqisi2
 254 0006 DBB2     		uxtb	r3, r3
 255 0008 042B     		cmp	r3, #4
 256 000a 02D9     		bls	.L22
 218:main.c        ****     }
 257              		.loc 1 218 0
 258 000c 0022     		movs	r2, #0
 259 000e 1C4B     		ldr	r3, .L28
 260 0010 5A72     		strb	r2, [r3, #9]
 261              	.L22:
 220:main.c        ****     if(timerL0_overflows[timerL0_index] == false){
 262              		.loc 1 220 0
 263 0012 FFF7FEFF 		bl	Encoder_L0_Timer_ReadPeriod
 264              	.LVL11:
 265 0016 0446     		mov	r4, r0
 266              	.LVL12:
 221:main.c        ****         //If the timer has not overflowed, store the capture value
 267              		.loc 1 221 0
 268 0018 194A     		ldr	r2, .L28
 269 001a 537A     		ldrb	r3, [r2, #9]	@ zero_extendqisi2
 270 001c 1344     		add	r3, r3, r2
 271 001e 1B7B     		ldrb	r3, [r3, #12]	@ zero_extendqisi2
 272 0020 13F0FF0F 		tst	r3, #255
 273 0024 0AD1     		bne	.L23
 223:main.c        ****     } else {
 274              		.loc 1 223 0
 275 0026 1546     		mov	r5, r2
 276 0028 567A     		ldrb	r6, [r2, #9]	@ zero_extendqisi2
 277 002a F6B2     		uxtb	r6, r6
 278 002c FFF7FEFF 		bl	Encoder_L0_Timer_ReadCapture
 279              	.LVL13:
 280 0030 201A     		subs	r0, r4, r0
 281 0032 80B2     		uxth	r0, r0
 282 0034 05EB4605 		add	r5, r5, r6, lsl #1
 283 0038 2884     		strh	r0, [r5, #32]	@ movhi
 284 003a 04E0     		b	.L24
 285              	.LVL14:
 286              	.L23:
 226:main.c        ****     }
 287              		.loc 1 226 0
 288 003c 104B     		ldr	r3, .L28
 289 003e 5A7A     		ldrb	r2, [r3, #9]	@ zero_extendqisi2
 290 0040 03EB4203 		add	r3, r3, r2, lsl #1
 291 0044 1884     		strh	r0, [r3, #32]	@ movhi
 292              	.LVL15:
 293              	.L24:
 229:main.c        ****     //Re-load the timer period into the count register to restart the timer
 294              		.loc 1 229 0
 295 0046 FFF7FEFF 		bl	Encoder_L0_Timer_ClearFIFO
 296              	.LVL16:
 231:main.c        ****     Encoder_L0_Timer_WriteCounter(timer_period);
 297              		.loc 1 231 0
 298 004a FFF7FEFF 		bl	Encoder_L0_Timer_Stop
 299              	.LVL17:
ARM GAS  C:\Users\bscj\AppData\Local\Temp\cceFw1QO.s 			page 12


 232:main.c        ****     
 300              		.loc 1 232 0
 301 004e 2046     		mov	r0, r4
 302 0050 FFF7FEFF 		bl	Encoder_L0_Timer_WriteCounter
 303              	.LVL18:
 234:main.c        ****         timerL0_index++;   
 304              		.loc 1 234 0
 305 0054 0A4B     		ldr	r3, .L28
 306 0056 5B7A     		ldrb	r3, [r3, #9]	@ zero_extendqisi2
 307 0058 DBB2     		uxtb	r3, r3
 308 005a 032B     		cmp	r3, #3
 309 005c 05D8     		bhi	.L25
 235:main.c        ****     } else {
 310              		.loc 1 235 0
 311 005e 084A     		ldr	r2, .L28
 312 0060 537A     		ldrb	r3, [r2, #9]	@ zero_extendqisi2
 313 0062 0133     		adds	r3, r3, #1
 314 0064 DBB2     		uxtb	r3, r3
 315 0066 5372     		strb	r3, [r2, #9]
 316 0068 02E0     		b	.L26
 317              	.L25:
 237:main.c        ****     }
 318              		.loc 1 237 0
 319 006a 0022     		movs	r2, #0
 320 006c 044B     		ldr	r3, .L28
 321 006e 5A72     		strb	r2, [r3, #9]
 322              	.L26:
 240:main.c        ****     Encoder_L0_Timer_Start();
 323              		.loc 1 240 0
 324 0070 034A     		ldr	r2, .L28
 325 0072 537A     		ldrb	r3, [r2, #9]	@ zero_extendqisi2
 326 0074 1344     		add	r3, r3, r2
 327 0076 0022     		movs	r2, #0
 328 0078 1A73     		strb	r2, [r3, #12]
 241:main.c        **** }
 329              		.loc 1 241 0
 330 007a FFF7FEFF 		bl	Encoder_L0_Timer_Start
 331              	.LVL19:
 332 007e 70BD     		pop	{r4, r5, r6, pc}
 333              	.L29:
 334              		.align	2
 335              	.L28:
 336 0080 00000000 		.word	.LANCHOR0
 337              		.cfi_endproc
 338              	.LFE69:
 339              		.size	ENC_L0_ISR_vect, .-ENC_L0_ISR_vect
 340              		.section	.text.ENC_R1_ISR_vect,"ax",%progbits
 341              		.align	2
 342              		.global	ENC_R1_ISR_vect
 343              		.thumb
 344              		.thumb_func
 345              		.type	ENC_R1_ISR_vect, %function
 346              	ENC_R1_ISR_vect:
 347              	.LFB70:
 251:main.c        ****     uint8_t encoder_R0_pin_state = Encoder_R0_Read();
 348              		.loc 1 251 0
 349              		.cfi_startproc
ARM GAS  C:\Users\bscj\AppData\Local\Temp\cceFw1QO.s 			page 13


 350              		@ args = 0, pretend = 0, frame = 0
 351              		@ frame_needed = 0, uses_anonymous_args = 0
 352 0000 08B5     		push	{r3, lr}
 353              		.cfi_def_cfa_offset 8
 354              		.cfi_offset 3, -8
 355              		.cfi_offset 14, -4
 252:main.c        ****     if(encoder_R0_pin_state == 0u){
 356              		.loc 1 252 0
 357 0002 FFF7FEFF 		bl	Encoder_R0_Read
 358              	.LVL20:
 253:main.c        ****         //R1 ISR has been triggered before R0.  We will interpret this as the wheel moving 
 359              		.loc 1 253 0
 360 0006 18B9     		cbnz	r0, .L31
 256:main.c        ****     } else {
 361              		.loc 1 256 0
 362 0008 0022     		movs	r2, #0
 363 000a 044B     		ldr	r3, .L34
 364 000c 1A70     		strb	r2, [r3]
 365 000e 02E0     		b	.L32
 366              	.L31:
 259:main.c        ****     }
 367              		.loc 1 259 0
 368 0010 0122     		movs	r2, #1
 369 0012 024B     		ldr	r3, .L34
 370 0014 1A70     		strb	r2, [r3]
 371              	.L32:
 262:main.c        **** }
 372              		.loc 1 262 0
 373 0016 FFF7FEFF 		bl	Encoder_R1_ClearInterrupt
 374              	.LVL21:
 375 001a 08BD     		pop	{r3, pc}
 376              	.L35:
 377              		.align	2
 378              	.L34:
 379 001c 00000000 		.word	.LANCHOR1
 380              		.cfi_endproc
 381              	.LFE70:
 382              		.size	ENC_R1_ISR_vect, .-ENC_R1_ISR_vect
 383              		.section	.text.ENC_L1_ISR_vect,"ax",%progbits
 384              		.align	2
 385              		.global	ENC_L1_ISR_vect
 386              		.thumb
 387              		.thumb_func
 388              		.type	ENC_L1_ISR_vect, %function
 389              	ENC_L1_ISR_vect:
 390              	.LFB71:
 272:main.c        ****     uint8_t encoder_L0_pin_state = Encoder_L0_Read();
 391              		.loc 1 272 0
 392              		.cfi_startproc
 393              		@ args = 0, pretend = 0, frame = 0
 394              		@ frame_needed = 0, uses_anonymous_args = 0
 395 0000 08B5     		push	{r3, lr}
 396              		.cfi_def_cfa_offset 8
 397              		.cfi_offset 3, -8
 398              		.cfi_offset 14, -4
 273:main.c        ****     if(encoder_L0_pin_state == 0u){
 399              		.loc 1 273 0
ARM GAS  C:\Users\bscj\AppData\Local\Temp\cceFw1QO.s 			page 14


 400 0002 FFF7FEFF 		bl	Encoder_L0_Read
 401              	.LVL22:
 274:main.c        ****         //L1 ISR has been triggered before L0.  We will interpret this as the wheel moving 
 402              		.loc 1 274 0
 403 0006 18B9     		cbnz	r0, .L37
 277:main.c        ****     } else {
 404              		.loc 1 277 0
 405 0008 0022     		movs	r2, #0
 406 000a 044B     		ldr	r3, .L40
 407 000c 5A70     		strb	r2, [r3, #1]
 408 000e 02E0     		b	.L38
 409              	.L37:
 280:main.c        ****     }
 410              		.loc 1 280 0
 411 0010 0122     		movs	r2, #1
 412 0012 024B     		ldr	r3, .L40
 413 0014 5A70     		strb	r2, [r3, #1]
 414              	.L38:
 283:main.c        **** }
 415              		.loc 1 283 0
 416 0016 FFF7FEFF 		bl	Encoder_L1_ClearInterrupt
 417              	.LVL23:
 418 001a 08BD     		pop	{r3, pc}
 419              	.L41:
 420              		.align	2
 421              	.L40:
 422 001c 00000000 		.word	.LANCHOR1
 423              		.cfi_endproc
 424              	.LFE71:
 425              		.size	ENC_L1_ISR_vect, .-ENC_L1_ISR_vect
 426              		.section	.text.usbPutString,"ax",%progbits
 427              		.align	2
 428              		.global	usbPutString
 429              		.thumb
 430              		.thumb_func
 431              		.type	usbPutString, %function
 432              	usbPutString:
 433              	.LFB64:
 116:main.c        ****     while(USBUART_CDCIsReady() == 0);
 434              		.loc 1 116 0
 435              		.cfi_startproc
 436              		@ args = 0, pretend = 0, frame = 0
 437              		@ frame_needed = 0, uses_anonymous_args = 0
 438              	.LVL24:
 439 0000 10B5     		push	{r4, lr}
 440              		.cfi_def_cfa_offset 8
 441              		.cfi_offset 4, -8
 442              		.cfi_offset 14, -4
 443 0002 0446     		mov	r4, r0
 444              	.LVL25:
 445              	.L43:
 117:main.c        ****     string[63] = '\0';
 446              		.loc 1 117 0 discriminator 1
 447 0004 FFF7FEFF 		bl	USBUART_CDCIsReady
 448              	.LVL26:
 449 0008 0028     		cmp	r0, #0
 450 000a FBD0     		beq	.L43
ARM GAS  C:\Users\bscj\AppData\Local\Temp\cceFw1QO.s 			page 15


 118:main.c        ****     string[62] = '!';
 451              		.loc 1 118 0
 452 000c 0023     		movs	r3, #0
 453 000e 84F83F30 		strb	r3, [r4, #63]
 119:main.c        ****     USBUART_PutData((uint8*)string,strlen(string));    
 454              		.loc 1 119 0
 455 0012 2123     		movs	r3, #33
 456 0014 84F83E30 		strb	r3, [r4, #62]
 120:main.c        **** }
 457              		.loc 1 120 0
 458 0018 2046     		mov	r0, r4
 459 001a FFF7FEFF 		bl	strlen
 460              	.LVL27:
 461 001e 81B2     		uxth	r1, r0
 462 0020 2046     		mov	r0, r4
 463 0022 FFF7FEFF 		bl	USBUART_PutData
 464              	.LVL28:
 465 0026 10BD     		pop	{r4, pc}
 466              		.cfi_endproc
 467              	.LFE64:
 468              		.size	usbPutString, .-usbPutString
 469              		.section	.text.usbPutChar,"ax",%progbits
 470              		.align	2
 471              		.global	usbPutChar
 472              		.thumb
 473              		.thumb_func
 474              		.type	usbPutChar, %function
 475              	usbPutChar:
 476              	.LFB65:
 127:main.c        ****     while(USBUART_CDCIsReady() == 0);
 477              		.loc 1 127 0
 478              		.cfi_startproc
 479              		@ args = 0, pretend = 0, frame = 0
 480              		@ frame_needed = 0, uses_anonymous_args = 0
 481              	.LVL29:
 482 0000 10B5     		push	{r4, lr}
 483              		.cfi_def_cfa_offset 8
 484              		.cfi_offset 4, -8
 485              		.cfi_offset 14, -4
 486 0002 0446     		mov	r4, r0
 487              	.LVL30:
 488              	.L46:
 128:main.c        ****     USBUART_PutChar(c);   
 489              		.loc 1 128 0 discriminator 1
 490 0004 FFF7FEFF 		bl	USBUART_CDCIsReady
 491              	.LVL31:
 492 0008 0028     		cmp	r0, #0
 493 000a FBD0     		beq	.L46
 129:main.c        **** }
 494              		.loc 1 129 0
 495 000c 2046     		mov	r0, r4
 496 000e FFF7FEFF 		bl	USBUART_PutChar
 497              	.LVL32:
 498 0012 10BD     		pop	{r4, pc}
 499              		.cfi_endproc
 500              	.LFE65:
 501              		.size	usbPutChar, .-usbPutChar
ARM GAS  C:\Users\bscj\AppData\Local\Temp\cceFw1QO.s 			page 16


 502              		.section	.text.RX_ISR_vect,"ax",%progbits
 503              		.align	2
 504              		.global	RX_ISR_vect
 505              		.thumb
 506              		.thumb_func
 507              		.type	RX_ISR_vect, %function
 508              	RX_ISR_vect:
 509              	.LFB73:
 294:main.c        ****     
 295:main.c        ****     
 296:main.c        **** }
 297:main.c        **** /* ISR: RX_ISR_vect
 298:main.c        ****  * Purpose: Store characters received from UART into the receive buffer
 299:main.c        ****  * Modifies: char *receive_buffer_ptr[] - the input character buffer
 300:main.c        ****  *                                         which is either buffer_1 or buffer_2
 301:main.c        ****  *           uint8_t rx_buffer_size - the index of the rx buffer is updated
 302:main.c        ****  *                      
 303:main.c        ****  */
 304:main.c        **** CY_ISR(RX_ISR_vect){
 510              		.loc 1 304 0
 511              		.cfi_startproc
 512              		@ args = 0, pretend = 0, frame = 0
 513              		@ frame_needed = 0, uses_anonymous_args = 0
 514 0000 10B5     		push	{r4, lr}
 515              		.cfi_def_cfa_offset 8
 516              		.cfi_offset 4, -8
 517              		.cfi_offset 14, -4
 305:main.c        ****     char byte_received;
 306:main.c        ****     //Check for the FIFO_NOEMPTY flag which indicates the FIFO has data available to read
 307:main.c        ****     if(UART_ReadRxStatus() & UART_RX_STS_FIFO_NOTEMPTY){
 518              		.loc 1 307 0
 519 0002 FFF7FEFF 		bl	UART_ReadRxStatus
 520              	.LVL33:
 521 0006 10F0200F 		tst	r0, #32
 522 000a 11D0     		beq	.L48
 308:main.c        ****         byte_received = UART_GetChar();
 523              		.loc 1 308 0
 524 000c FFF7FEFF 		bl	UART_GetChar
 525              	.LVL34:
 526 0010 0446     		mov	r4, r0
 527              	.LVL35:
 309:main.c        ****         usbPutChar(byte_received);
 528              		.loc 1 309 0
 529 0012 FFF7FEFF 		bl	usbPutChar
 530              	.LVL36:
 310:main.c        ****         //USBUART_PutChar(byte_received);
 311:main.c        ****         receiving_buffer_ptr[rx_buffer_size] = byte_received;
 531              		.loc 1 311 0
 532 0016 074A     		ldr	r2, .L51
 533 0018 92F82A30 		ldrb	r3, [r2, #42]	@ zero_extendqisi2
 534 001c DBB2     		uxtb	r3, r3
 535 001e 0649     		ldr	r1, .L51+4
 536 0020 0968     		ldr	r1, [r1]
 537 0022 CC54     		strb	r4, [r1, r3]
 312:main.c        ****         rx_buffer_size++;
 538              		.loc 1 312 0
 539 0024 92F82A30 		ldrb	r3, [r2, #42]	@ zero_extendqisi2
ARM GAS  C:\Users\bscj\AppData\Local\Temp\cceFw1QO.s 			page 17


 540 0028 0133     		adds	r3, r3, #1
 541 002a DBB2     		uxtb	r3, r3
 542 002c 82F82A30 		strb	r3, [r2, #42]
 543              	.LVL37:
 544              	.L48:
 545 0030 10BD     		pop	{r4, pc}
 546              	.L52:
 547 0032 00BF     		.align	2
 548              	.L51:
 549 0034 00000000 		.word	.LANCHOR0
 550 0038 00000000 		.word	receiving_buffer_ptr
 551              		.cfi_endproc
 552              	.LFE73:
 553              		.size	RX_ISR_vect, .-RX_ISR_vect
 554              		.global	__aeabi_i2d
 555              		.global	__aeabi_dmul
 556              		.section	.text.main,"ax",%progbits
 557              		.align	2
 558              		.global	main
 559              		.thumb
 560              		.thumb_func
 561              		.type	main, %function
 562              	main:
 563              	.LFB74:
 313:main.c        ****     }
 314:main.c        **** }
 315:main.c        **** 
 316:main.c        **** /* *********************************************** */
 317:main.c        **** /* **********************MAIN********************* */
 318:main.c        **** /* *********************************************** */
 319:main.c        **** int main(void)
 320:main.c        **** {
 564              		.loc 1 320 0
 565              		.cfi_startproc
 566              		@ args = 0, pretend = 0, frame = 16
 567              		@ frame_needed = 0, uses_anonymous_args = 0
 568 0000 2DE9F04F 		push	{r4, r5, r6, r7, r8, r9, r10, fp, lr}
 569              		.cfi_def_cfa_offset 36
 570              		.cfi_offset 4, -36
 571              		.cfi_offset 5, -32
 572              		.cfi_offset 6, -28
 573              		.cfi_offset 7, -24
 574              		.cfi_offset 8, -20
 575              		.cfi_offset 9, -16
 576              		.cfi_offset 10, -12
 577              		.cfi_offset 11, -8
 578              		.cfi_offset 14, -4
 579 0004 8BB0     		sub	sp, sp, #44
 580              		.cfi_def_cfa_offset 80
 321:main.c        ****     /* ********INITIALISE CODE******** */
 322:main.c        ****     CyGlobalIntEnable; /* Enable global interrupts. */
 581              		.loc 1 322 0
 582              		.syntax unified
 583              	@ 322 "main.c" 1
 584 0006 62B6     		CPSIE   i
 585              	@ 0 "" 2
 323:main.c        ****     //Ensure reset lines are low initially
ARM GAS  C:\Users\bscj\AppData\Local\Temp\cceFw1QO.s 			page 18


 324:main.c        ****     PWM_RESET_Write(0b0000);
 586              		.loc 1 324 0
 587              		.thumb
 588              		.syntax unified
 589 0008 0020     		movs	r0, #0
 590 000a FFF7FEFF 		bl	PWM_RESET_Write
 591              	.LVL38:
 325:main.c        ****     ENCODER_TMR_RESET_Write(0b0000);
 592              		.loc 1 325 0
 593 000e 0020     		movs	r0, #0
 594 0010 FFF7FEFF 		bl	ENCODER_TMR_RESET_Write
 595              	.LVL39:
 326:main.c        ****     
 327:main.c        ****     //Enable the USART
 328:main.c        ****     UART_Start();
 596              		.loc 1 328 0
 597 0014 FFF7FEFF 		bl	UART_Start
 598              	.LVL40:
 329:main.c        ****     UART_EnableRxInt();
 599              		.loc 1 329 0
 600 0018 A14B     		ldr	r3, .L68+8
 601 001a 2022     		movs	r2, #32
 602 001c 1A60     		str	r2, [r3]
 330:main.c        ****     UART_EnableTxInt();
 603              		.loc 1 330 0
 604 001e 8022     		movs	r2, #128
 605 0020 1A60     		str	r2, [r3]
 331:main.c        ****     USBUART_Start(0,USBUART_5V_OPERATION);
 606              		.loc 1 331 0
 607 0022 0121     		movs	r1, #1
 608 0024 0020     		movs	r0, #0
 609 0026 FFF7FEFF 		bl	USBUART_Start
 610              	.LVL41:
 332:main.c        ****     
 333:main.c        ****     //Enable the PWM wheel outputs
 334:main.c        ****     PWM_L_Start();
 611              		.loc 1 334 0
 612 002a FFF7FEFF 		bl	PWM_L_Start
 613              	.LVL42:
 335:main.c        ****     PWM_R_Start();
 614              		.loc 1 335 0
 615 002e FFF7FEFF 		bl	PWM_R_Start
 616              	.LVL43:
 336:main.c        **** 
 337:main.c        ****     //Enable the encoder timers
 338:main.c        ****     Encoder_L0_Timer_Start();
 617              		.loc 1 338 0
 618 0032 FFF7FEFF 		bl	Encoder_L0_Timer_Start
 619              	.LVL44:
 339:main.c        ****     Encoder_R0_Timer_Start();
 620              		.loc 1 339 0
 621 0036 FFF7FEFF 		bl	Encoder_R0_Timer_Start
 622              	.LVL45:
 340:main.c        ****     
 341:main.c        ****     //Configure the initial pointers for the USART RX isr and the main function
 342:main.c        ****     receiving_buffer_ptr = buffer_1;
 623              		.loc 1 342 0
ARM GAS  C:\Users\bscj\AppData\Local\Temp\cceFw1QO.s 			page 19


 624 003a 9A4B     		ldr	r3, .L68+12
 625 003c 03F12C01 		add	r1, r3, #44
 626 0040 994A     		ldr	r2, .L68+16
 627 0042 1160     		str	r1, [r2]
 343:main.c        ****     processing_buffer_ptr = buffer_2;
 628              		.loc 1 343 0
 629 0044 9033     		adds	r3, r3, #144
 630 0046 994A     		ldr	r2, .L68+20
 631 0048 1360     		str	r3, [r2]
 632              	.LVL46:
 344:main.c        ****     uint8_t read_buffer_size = 0; //The size of the buffer the main function will read from
 345:main.c        **** 
 346:main.c        ****     //Get the robot id
 347:main.c        ****     uint8_t robot_id = get_robot_ID();
 633              		.loc 1 347 0
 634 004a FFF7FEFF 		bl	get_robot_ID
 635              	.LVL47:
 636 004e 8246     		mov	r10, r0
 637              	.LVL48:
 348:main.c        ****     
 349:main.c        ****     //Commands from USART.  Initialise to 0[m/s], 0[rad/s]
 350:main.c        ****     ROBOT_COMMAND *current_command = malloc(sizeof(*current_command));
 638              		.loc 1 350 0
 639 0050 1020     		movs	r0, #16
 640 0052 FFF7FEFF 		bl	malloc
 641              	.LVL49:
 642 0056 0546     		mov	r5, r0
 643              	.LVL50:
 351:main.c        ****     current_command->angv = 0;
 644              		.loc 1 351 0
 645 0058 0026     		movs	r6, #0
 646 005a 0027     		movs	r7, #0
 647 005c C0E90267 		strd	r6, [r0, #8]
 352:main.c        ****     current_command->linv = 0;
 648              		.loc 1 352 0
 649 0060 C0E90067 		strd	r6, [r0]
 650              	.LVL51:
 353:main.c        ****     uint8_t starting_index = 0; //Starting index of the starting bytes of the received data
 354:main.c        ****     bool transmission_corrupted = false;
 355:main.c        **** 	
 356:main.c        **** 	//Initialise PID with the gain values specfied
 357:main.c        **** 	PID_initialise(&pid_linv,Pgain_linv,Dgain_linv,Igain_linv);
 651              		.loc 1 357 0
 652 0064 4FF00008 		mov	r8, #0
 653 0068 DFF88492 		ldr	r9, .L68+88
 654 006c CDE90267 		strd	r6, [sp, #8]
 655 0070 CDE90067 		strd	r6, [sp]
 656 0074 4246     		mov	r2, r8
 657 0076 4B46     		mov	r3, r9
 658 0078 8D48     		ldr	r0, .L68+24
 659              	.LVL52:
 660 007a FFF7FEFF 		bl	PID_initialise
 661              	.LVL53:
 358:main.c        **** 	PID_initialise(&pid_angv,Pgain_angv,Dgain_angv,Igain_angv);
 662              		.loc 1 358 0
 663 007e CDE90267 		strd	r6, [sp, #8]
 664 0082 CDE90067 		strd	r6, [sp]
ARM GAS  C:\Users\bscj\AppData\Local\Temp\cceFw1QO.s 			page 20


 665 0086 4246     		mov	r2, r8
 666 0088 4B46     		mov	r3, r9
 667 008a 8A48     		ldr	r0, .L68+28
 668 008c FFF7FEFF 		bl	PID_initialise
 669              	.LVL54:
 359:main.c        ****     
 360:main.c        ****     char *string = (char*)malloc(STR_LEN_MAX);
 670              		.loc 1 360 0
 671 0090 6420     		movs	r0, #100
 672 0092 FFF7FEFF 		bl	malloc
 673              	.LVL55:
 674 0096 0446     		mov	r4, r0
 675              	.LVL56:
 361:main.c        **** 
 362:main.c        ****     //Enable and configure all interrupts
 363:main.c        ****     tx_isr_StartEx(TX_ISR_vect);
 676              		.loc 1 363 0
 677 0098 8748     		ldr	r0, .L68+32
 678              	.LVL57:
 679 009a FFF7FEFF 		bl	tx_isr_StartEx
 680              	.LVL58:
 364:main.c        ****     rx_isr_StartEx(RX_ISR_vect);
 681              		.loc 1 364 0
 682 009e 8748     		ldr	r0, .L68+36
 683 00a0 FFF7FEFF 		bl	rx_isr_StartEx
 684              	.LVL59:
 365:main.c        ****     ENCODER_R0_OVF_ISR_StartEx(ENCODER_R0_OVF_ISR_vect);
 685              		.loc 1 365 0
 686 00a4 8648     		ldr	r0, .L68+40
 687 00a6 FFF7FEFF 		bl	ENCODER_R0_OVF_ISR_StartEx
 688              	.LVL60:
 366:main.c        ****     ENCODER_L0_OVF_ISR_StartEx(ENCODER_L0_OVF_ISR_vect);
 689              		.loc 1 366 0
 690 00aa 8648     		ldr	r0, .L68+44
 691 00ac FFF7FEFF 		bl	ENCODER_L0_OVF_ISR_StartEx
 692              	.LVL61:
 367:main.c        ****     ENC_R0_ISR_StartEx(ENC_R0_ISR_vect);
 693              		.loc 1 367 0
 694 00b0 8548     		ldr	r0, .L68+48
 695 00b2 FFF7FEFF 		bl	ENC_R0_ISR_StartEx
 696              	.LVL62:
 368:main.c        ****     ENC_L0_ISR_StartEx(ENC_L0_ISR_vect);
 697              		.loc 1 368 0
 698 00b6 8548     		ldr	r0, .L68+52
 699 00b8 FFF7FEFF 		bl	ENC_L0_ISR_StartEx
 700              	.LVL63:
 369:main.c        ****     ENC_R1_ISR_StartEx(ENC_R1_ISR_vect);
 701              		.loc 1 369 0
 702 00bc 8448     		ldr	r0, .L68+56
 703 00be FFF7FEFF 		bl	ENC_R1_ISR_StartEx
 704              	.LVL64:
 370:main.c        ****     ENC_L1_ISR_StartEx(ENC_L1_ISR_vect);
 705              		.loc 1 370 0
 706 00c2 8448     		ldr	r0, .L68+60
 707 00c4 FFF7FEFF 		bl	ENC_L1_ISR_StartEx
 708              	.LVL65:
 371:main.c        ****     
ARM GAS  C:\Users\bscj\AppData\Local\Temp\cceFw1QO.s 			page 21


 372:main.c        ****     usbPutString("Welcome to the ROBOT SOCCER TEST DEBUGGING TERMINAL\n\r");    
 709              		.loc 1 372 0
 710 00c8 8348     		ldr	r0, .L68+64
 711 00ca FFF7FEFF 		bl	usbPutString
 712              	.LVL66:
 373:main.c        ****     sprintf(string,"Robot ID: %d\r\n",robot_id);
 713              		.loc 1 373 0
 714 00ce D346     		mov	fp, r10
 715 00d0 5246     		mov	r2, r10
 716 00d2 8249     		ldr	r1, .L68+68
 717 00d4 2046     		mov	r0, r4
 718 00d6 FFF7FEFF 		bl	sprintf
 719              	.LVL67:
 374:main.c        ****     usbPutString(string);
 720              		.loc 1 374 0
 721 00da 2046     		mov	r0, r4
 722 00dc FFF7FEFF 		bl	usbPutString
 723              	.LVL68:
 353:main.c        ****     bool transmission_corrupted = false;
 724              		.loc 1 353 0
 725 00e0 0024     		movs	r4, #0
 726              	.LVL69:
 727              	.L54:
 375:main.c        ****     
 376:main.c        ****     /* *************RUN CODE************* */
 377:main.c        ****     for(;;){
 378:main.c        ****         /* Get transmission command from USART */
 379:main.c        ****         //Full transmission string has been received in the buffer.  This condition needs to be tes
 380:main.c        ****         if(rx_buffer_size > TRANSMISSION_STR_LENGTH){ 
 728              		.loc 1 380 0
 729 00e2 704B     		ldr	r3, .L68+12
 730 00e4 93F82A30 		ldrb	r3, [r3, #42]	@ zero_extendqisi2
 731 00e8 DBB2     		uxtb	r3, r3
 732 00ea 302B     		cmp	r3, #48
 733 00ec F9D9     		bls	.L54
 734              	.LBB2:
 381:main.c        ****             
 382:main.c        ****             //****CRITICAL_SECTION
 383:main.c        ****             //Swap buffers the pointers point to to read what the ISR has been writing to
 384:main.c        ****             UART_DisableRxInt();    
 735              		.loc 1 384 0
 736 00ee 2022     		movs	r2, #32
 737 00f0 7B4B     		ldr	r3, .L68+72
 738 00f2 1A60     		str	r2, [r3]
 385:main.c        ****                 volatile char *temp = receiving_buffer_ptr;
 739              		.loc 1 385 0
 740 00f4 6C49     		ldr	r1, .L68+16
 741 00f6 0868     		ldr	r0, [r1]
 742              	.LVL70:
 386:main.c        ****                 receiving_buffer_ptr = processing_buffer_ptr;
 743              		.loc 1 386 0
 744 00f8 6C4B     		ldr	r3, .L68+20
 745 00fa 1E68     		ldr	r6, [r3]
 746 00fc 0E60     		str	r6, [r1]
 387:main.c        ****                 processing_buffer_ptr = temp;
 747              		.loc 1 387 0
 748 00fe 1860     		str	r0, [r3]
ARM GAS  C:\Users\bscj\AppData\Local\Temp\cceFw1QO.s 			page 22


 388:main.c        ****             
 389:main.c        ****                 //Save the size of the buffer written to by the UXART RX isr
 390:main.c        ****                 read_buffer_size = rx_buffer_size;
 749              		.loc 1 390 0
 750 0100 6848     		ldr	r0, .L68+12
 751              	.LVL71:
 752 0102 90F82A10 		ldrb	r1, [r0, #42]	@ zero_extendqisi2
 753 0106 C9B2     		uxtb	r1, r1
 754              	.LVL72:
 391:main.c        ****                 //Reset the rx_buffer_size for when the RX isr writes to the new buffer
 392:main.c        ****                 rx_buffer_size = 0;
 755              		.loc 1 392 0
 756 0108 0023     		movs	r3, #0
 757 010a 80F82A30 		strb	r3, [r0, #42]
 393:main.c        ****             UART_EnableRxInt();
 758              		.loc 1 393 0
 759 010e 6448     		ldr	r0, .L68+8
 760 0110 0260     		str	r2, [r0]
 761              	.LVL73:
 762              	.LBB3:
 394:main.c        ****             //****END OF CRITICAL SECTION
 395:main.c        ****             
 396:main.c        ****             //Obtain the starting index of the command string in the receive buffer
 397:main.c        ****             //The start bytes of the transmission are 0xFF, 0xFF and 0x01
 398:main.c        ****             for(uint8_t i = 0; i < read_buffer_size; ++i){
 763              		.loc 1 398 0
 764 0112 16E0     		b	.L55
 765              	.LVL74:
 766              	.L57:
 399:main.c        ****                 //To avoid reading bad memory outside of what has been allocated to the buffer chec
 400:main.c        ****                 if(i + 2 < STR_LEN_MAX){
 767              		.loc 1 400 0
 768 0114 9A1C     		adds	r2, r3, #2
 769 0116 632A     		cmp	r2, #99
 770 0118 11DC     		bgt	.L56
 401:main.c        ****                     if(receiving_buffer_ptr[i] == (char)0xFF && receiving_buffer_ptr[i+1] == (char)
 771              		.loc 1 401 0
 772 011a 634A     		ldr	r2, .L68+16
 773 011c 1068     		ldr	r0, [r2]
 774 011e 1A46     		mov	r2, r3
 775 0120 C65C     		ldrb	r6, [r0, r3]	@ zero_extendqisi2
 776 0122 F6B2     		uxtb	r6, r6
 777 0124 FF2E     		cmp	r6, #255
 778 0126 0AD1     		bne	.L56
 779              		.loc 1 401 0 is_stmt 0 discriminator 1
 780 0128 5E1C     		adds	r6, r3, #1
 781 012a 865D     		ldrb	r6, [r0, r6]	@ zero_extendqisi2
 782 012c F6B2     		uxtb	r6, r6
 783 012e FF2E     		cmp	r6, #255
 784 0130 05D1     		bne	.L56
 785              		.loc 1 401 0 discriminator 2
 786 0132 0232     		adds	r2, r2, #2
 787 0134 825C     		ldrb	r2, [r0, r2]	@ zero_extendqisi2
 788 0136 D2B2     		uxtb	r2, r2
 789 0138 012A     		cmp	r2, #1
 790 013a 00D1     		bne	.L56
 402:main.c        ****                         starting_index = i;
ARM GAS  C:\Users\bscj\AppData\Local\Temp\cceFw1QO.s 			page 23


 791              		.loc 1 402 0 is_stmt 1
 792 013c 1C46     		mov	r4, r3
 793              	.LVL75:
 794              	.L56:
 398:main.c        ****                 //To avoid reading bad memory outside of what has been allocated to the buffer chec
 795              		.loc 1 398 0 discriminator 2
 796 013e 0133     		adds	r3, r3, #1
 797              	.LVL76:
 798 0140 DBB2     		uxtb	r3, r3
 799              	.LVL77:
 800              	.L55:
 398:main.c        ****                 //To avoid reading bad memory outside of what has been allocated to the buffer chec
 801              		.loc 1 398 0 is_stmt 0 discriminator 1
 802 0142 8B42     		cmp	r3, r1
 803 0144 E6D3     		bcc	.L57
 804 0146 2346     		mov	r3, r4
 805              	.LVL78:
 806 0148 0022     		movs	r2, #0
 807 014a 08E0     		b	.L58
 808              	.LVL79:
 809              	.L60:
 810              	.LBE3:
 811              	.LBB4:
 403:main.c        ****                     }
 404:main.c        ****                 }
 405:main.c        ****             }
 406:main.c        ****             
 407:main.c        ****             char check_sum = 0;
 408:main.c        ****             //Read the receiving buffer (from receiving_buffer_ptr), parse it and update the robot 
 409:main.c        ****             //Recall the packet is 48 bytes long
 410:main.c        ****             //Check for accuracy in the transmission
 411:main.c        ****             //The sum of the bytes plus the last checksum byte should be 0 if receieved in completi
 412:main.c        ****             for(uint8_t i = starting_index; i < starting_index + TRANSMISSION_PKT_SIZE - 1; ++i){
 413:main.c        ****                 if(i < STR_LEN_MAX){
 812              		.loc 1 413 0 is_stmt 1
 813 014c 632B     		cmp	r3, #99
 814 014e 04D8     		bhi	.L59
 414:main.c        ****                     check_sum += (uint8_t)receiving_buffer_ptr[i];
 815              		.loc 1 414 0
 816 0150 5549     		ldr	r1, .L68+16
 817 0152 0968     		ldr	r1, [r1]
 818 0154 C95C     		ldrb	r1, [r1, r3]	@ zero_extendqisi2
 819 0156 0A44     		add	r2, r2, r1
 820              	.LVL80:
 821 0158 D2B2     		uxtb	r2, r2
 822              	.LVL81:
 823              	.L59:
 412:main.c        ****                 if(i < STR_LEN_MAX){
 824              		.loc 1 412 0 discriminator 2
 825 015a 0133     		adds	r3, r3, #1
 826              	.LVL82:
 827 015c DBB2     		uxtb	r3, r3
 828              	.LVL83:
 829              	.L58:
 412:main.c        ****                 if(i < STR_LEN_MAX){
 830              		.loc 1 412 0 is_stmt 0 discriminator 1
 831 015e 04F12F01 		add	r1, r4, #47
ARM GAS  C:\Users\bscj\AppData\Local\Temp\cceFw1QO.s 			page 24


 832 0162 8B42     		cmp	r3, r1
 833 0164 F2DB     		blt	.L60
 834              	.LBE4:
 415:main.c        ****                 }
 416:main.c        ****             }
 417:main.c        ****             
 418:main.c        ****             //Check the checksum - if it's zero - uncorrupted
 419:main.c        ****             if(check_sum != 0){
 835              		.loc 1 419 0 is_stmt 1
 836 0166 0AB1     		cbz	r2, .L66
 420:main.c        ****                 transmission_corrupted = true;
 837              		.loc 1 420 0
 838 0168 0121     		movs	r1, #1
 839 016a 00E0     		b	.L61
 840              	.L66:
 421:main.c        ****             } else {
 422:main.c        ****                 transmission_corrupted = false;   
 841              		.loc 1 422 0
 842 016c 0021     		movs	r1, #0
 843              	.L61:
 844              	.LVL84:
 423:main.c        ****             }
 424:main.c        ****             /* *Parse input command* */          
 425:main.c        ****             //Each byte for each robot begins at three plus the nth multiple of 4 after the startin
 426:main.c        ****             //The first three bytes are unrelated to speed transmission as these are the starting b
 427:main.c        ****             //Since robot_id begins at 1 for the 1st robot, the starting index needs to begin at th
 428:main.c        ****             uint8_t robot_data_index = 4 * (robot_id - 1) + 3 + starting_index;
 845              		.loc 1 428 0
 846 016e 0BF1FF33 		add	r3, fp, #-1
 847              	.LVL85:
 848 0172 04EB8303 		add	r3, r4, r3, lsl #2
 849 0176 0333     		adds	r3, r3, #3
 850 0178 DBB2     		uxtb	r3, r3
 851              	.LVL86:
 429:main.c        ****             
 430:main.c        ****             //The transmission has the least significant bits followed by the most significant bits
 431:main.c        ****             //Concatenate these two bytes together to form the scaled version of the linear and ang
 432:main.c        ****             //Two bytes for the linear velocity followed by two bytes for the angular velocity
 433:main.c        ****             uint8_t linv_LSB, argv_LSB;
 434:main.c        ****             int16_t linv_MSB, argv_MSB, scaled_linv, scaled_argv;
 435:main.c        ****             
 436:main.c        ****             //If the transmission has been corrupted, don't update the command
 437:main.c        ****             if(robot_data_index + 3 < STR_LEN_MAX && transmission_corrupted == false){
 852              		.loc 1 437 0
 853 017a DA1C     		adds	r2, r3, #3
 854              	.LVL87:
 855 017c 632A     		cmp	r2, #99
 856 017e 22DC     		bgt	.L62
 857              		.loc 1 437 0 is_stmt 0 discriminator 1
 858 0180 09BB     		cbnz	r1, .L62
 438:main.c        ****                 linv_MSB = (int16_t)(receiving_buffer_ptr[robot_data_index + 1] << 8);
 859              		.loc 1 438 0 is_stmt 1
 860 0182 494A     		ldr	r2, .L68+16
 861 0184 1668     		ldr	r6, [r2]
 862 0186 5A1C     		adds	r2, r3, #1
 863 0188 B25C     		ldrb	r2, [r6, r2]	@ zero_extendqisi2
 864 018a 1202     		lsls	r2, r2, #8
ARM GAS  C:\Users\bscj\AppData\Local\Temp\cceFw1QO.s 			page 25


 865 018c 12B2     		sxth	r2, r2
 866              	.LVL88:
 439:main.c        ****                 linv_LSB = (uint8_t)receiving_buffer_ptr[robot_data_index];
 867              		.loc 1 439 0
 868 018e F05C     		ldrb	r0, [r6, r3]	@ zero_extendqisi2
 869              	.LVL89:
 440:main.c        ****                 
 441:main.c        ****                 argv_MSB = (int16_t)(receiving_buffer_ptr[robot_data_index + 3] << 8);
 870              		.loc 1 441 0
 871 0190 D91C     		adds	r1, r3, #3
 872              	.LVL90:
 873 0192 715C     		ldrb	r1, [r6, r1]	@ zero_extendqisi2
 874 0194 0902     		lsls	r1, r1, #8
 875 0196 09B2     		sxth	r1, r1
 876              	.LVL91:
 442:main.c        ****                 argv_LSB = (uint8_t)receiving_buffer_ptr[robot_data_index + 2];
 877              		.loc 1 442 0
 878 0198 0233     		adds	r3, r3, #2
 879              	.LVL92:
 880 019a F65C     		ldrb	r6, [r6, r3]	@ zero_extendqisi2
 881              	.LVL93:
 443:main.c        ****                 
 444:main.c        ****                 scaled_linv = (int16_t)(linv_MSB | linv_LSB);
 445:main.c        ****                 scaled_argv = (int16_t)(argv_MSB | argv_LSB);
 882              		.loc 1 445 0
 883 019c 0E43     		orrs	r6, r6, r1
 884              	.LVL94:
 446:main.c        ****                 
 447:main.c        ****                 current_command->linv = (double)scaled_linv / LIN_V_SCALING_FACTOR;
 885              		.loc 1 447 0
 886 019e 1043     		orrs	r0, r0, r2
 887              	.LVL95:
 888 01a0 FFF7FEFF 		bl	__aeabi_i2d
 889              	.LVL96:
 890 01a4 0022     		movs	r2, #0
 891 01a6 4FF07D53 		mov	r3, #1061158912
 892 01aa FFF7FEFF 		bl	__aeabi_dmul
 893              	.LVL97:
 894 01ae C5E90001 		strd	r0, [r5]
 448:main.c        ****                 current_command->angv = (double)scaled_argv / ANG_V_SCALING_FACTOR;
 895              		.loc 1 448 0
 896 01b2 3046     		mov	r0, r6
 897 01b4 FFF7FEFF 		bl	__aeabi_i2d
 898              	.LVL98:
 899 01b8 0022     		movs	r2, #0
 900 01ba 4A4B     		ldr	r3, .L68+76
 901 01bc FFF7FEFF 		bl	__aeabi_dmul
 902              	.LVL99:
 903 01c0 C5E90201 		strd	r0, [r5, #8]
 904 01c4 02E0     		b	.L63
 905              	.LVL100:
 906              	.L62:
 449:main.c        ****             } else {
 450:main.c        ****                 usbPutString("Robot data received for the robot in question is over the length of t
 907              		.loc 1 450 0
 908 01c6 4848     		ldr	r0, .L68+80
 909 01c8 FFF7FEFF 		bl	usbPutString
ARM GAS  C:\Users\bscj\AppData\Local\Temp\cceFw1QO.s 			page 26


 910              	.LVL101:
 911              	.L63:
 451:main.c        ****             }
 452:main.c        ****             
 453:main.c        **** 			/* Move robot with PID control */
 454:main.c        **** 			//Gettting the actual angular, linear velocities of the robot through the encoder
 455:main.c        **** 		    double motor_angv_R = count_to_angv(timerR0_count[timerR0_index],ENCODER_COUNTS,timerR0_overf
 912              		.loc 1 455 0
 913 01cc 354E     		ldr	r6, .L68+12
 914 01ce 3378     		ldrb	r3, [r6]	@ zero_extendqisi2
 915 01d0 06EB4303 		add	r3, r6, r3, lsl #1
 916 01d4 988A     		ldrh	r0, [r3, #20]
 917 01d6 3378     		ldrb	r3, [r6]	@ zero_extendqisi2
 918 01d8 3344     		add	r3, r3, r6
 919 01da 1A79     		ldrb	r2, [r3, #4]	@ zero_extendqisi2
 920 01dc 434F     		ldr	r7, .L68+84
 921 01de 3B78     		ldrb	r3, [r7]	@ zero_extendqisi2
 922 01e0 0B21     		movs	r1, #11
 923 01e2 80B2     		uxth	r0, r0
 924 01e4 FFF7FEFF 		bl	count_to_angv
 925              	.LVL102:
 926 01e8 8046     		mov	r8, r0
 927 01ea 8946     		mov	r9, r1
 928              	.LVL103:
 456:main.c        ****             double motor_angv_L = count_to_angv(timerL0_count[timerL0_index],ENCODER_COUNTS,timerL0
 929              		.loc 1 456 0
 930 01ec 737A     		ldrb	r3, [r6, #9]	@ zero_extendqisi2
 931 01ee 06EB4303 		add	r3, r6, r3, lsl #1
 932 01f2 188C     		ldrh	r0, [r3, #32]
 933 01f4 737A     		ldrb	r3, [r6, #9]	@ zero_extendqisi2
 934 01f6 1E44     		add	r6, r6, r3
 935 01f8 327B     		ldrb	r2, [r6, #12]	@ zero_extendqisi2
 936 01fa 7B78     		ldrb	r3, [r7, #1]	@ zero_extendqisi2
 937 01fc 0B21     		movs	r1, #11
 938 01fe 80B2     		uxth	r0, r0
 939 0200 FFF7FEFF 		bl	count_to_angv
 940              	.LVL104:
 457:main.c        **** 		
 458:main.c        **** 			double linv_Lw = motor_angv_to_wheel_linv(motor_angv_L,GEAR_RATIO,WHEEL_DIAMETER);
 941              		.loc 1 458 0
 942 0204 24A7     		adr	r7, .L68
 943 0206 D7E90067 		ldrd	r6, [r7]
 944 020a CDE90067 		strd	r6, [sp]
 945 020e 0822     		movs	r2, #8
 946 0210 FFF7FEFF 		bl	motor_angv_to_wheel_linv
 947              	.LVL105:
 948 0214 CDE90601 		strd	r0, [sp, #24]
 949              	.LVL106:
 459:main.c        **** 			double linv_Rw = motor_angv_to_wheel_linv(motor_angv_R,GEAR_RATIO,WHEEL_DIAMETER);
 950              		.loc 1 459 0
 951 0218 CDE90067 		strd	r6, [sp]
 952 021c 0822     		movs	r2, #8
 953 021e 4046     		mov	r0, r8
 954              	.LVL107:
 955 0220 4946     		mov	r1, r9
 956 0222 FFF7FEFF 		bl	motor_angv_to_wheel_linv
 957              	.LVL108:
ARM GAS  C:\Users\bscj\AppData\Local\Temp\cceFw1QO.s 			page 27


 958 0226 CDE90801 		strd	r0, [sp, #32]
 959              	.LVL109:
 460:main.c        **** 			
 461:main.c        ****             //Linear velocity of rebot measured from encoder
 462:main.c        **** 			double robot_linv = get_robot_linv(linv_Rw,linv_Lw);
 960              		.loc 1 462 0
 961 022a DDE90623 		ldrd	r2, [sp, #24]
 962 022e FFF7FEFF 		bl	get_robot_linv
 963              	.LVL110:
 964 0232 8046     		mov	r8, r0
 965              	.LVL111:
 966 0234 8946     		mov	r9, r1
 967              	.LVL112:
 463:main.c        ****             //Angular velocity of robot measured from encoder
 464:main.c        **** 			double robot_angv = get_robot_angv(linv_Rw,linv_Lw,ROBOT_WIDTH); 
 968              		.loc 1 464 0
 969 0236 CDE90067 		strd	r6, [sp]
 970 023a DDE90623 		ldrd	r2, [sp, #24]
 971 023e DDE90801 		ldrd	r0, [sp, #32]
 972 0242 FFF7FEFF 		bl	get_robot_angv
 973              	.LVL113:
 974 0246 CDE90601 		strd	r0, [sp, #24]
 975              	.LVL114:
 465:main.c        **** 			
 466:main.c        **** 			//Using PID control to adjust any velocity errors of the robot
 467:main.c        **** 			double new_linv = PID_update(&pid_linv,robot_linv,current_command->linv);
 976              		.loc 1 467 0
 977 024a D5E90023 		ldrd	r2, [r5]
 978 024e CDE90023 		strd	r2, [sp]
 979 0252 4246     		mov	r2, r8
 980 0254 4B46     		mov	r3, r9
 981 0256 1648     		ldr	r0, .L68+24
 982              	.LVL115:
 983 0258 FFF7FEFF 		bl	PID_update
 984              	.LVL116:
 985 025c 8046     		mov	r8, r0
 986              	.LVL117:
 987 025e 8946     		mov	r9, r1
 988              	.LVL118:
 468:main.c        **** 			double new_angv = PID_update(&pid_angv,robot_angv,current_command->angv);
 989              		.loc 1 468 0
 990 0260 D5E90223 		ldrd	r2, [r5, #8]
 991 0264 CDE90023 		strd	r2, [sp]
 992 0268 DDE90623 		ldrd	r2, [sp, #24]
 993 026c 1148     		ldr	r0, .L68+28
 994 026e FFF7FEFF 		bl	PID_update
 995              	.LVL119:
 469:main.c        **** 			
 470:main.c        **** 			//Updating the new robot commands/movement
 471:main.c        **** 			move_robot(new_linv,new_angv,ROBOT_WIDTH,WHEEL_DIAMETER,MOTOR_MAX_RPM,GEAR_RATIO);
 996              		.loc 1 471 0
 997 0272 0823     		movs	r3, #8
 998 0274 0593     		str	r3, [sp, #20]
 999 0276 42F65053 		movw	r3, #11600
 1000 027a 0493     		str	r3, [sp, #16]
 1001 027c CDE90267 		strd	r6, [sp, #8]
 1002 0280 CDE90067 		strd	r6, [sp]
ARM GAS  C:\Users\bscj\AppData\Local\Temp\cceFw1QO.s 			page 28


 1003 0284 0246     		mov	r2, r0
 1004 0286 0B46     		mov	r3, r1
 1005 0288 4046     		mov	r0, r8
 1006              	.LVL120:
 1007 028a 4946     		mov	r1, r9
 1008 028c FFF7FEFF 		bl	move_robot
 1009              	.LVL121:
 1010 0290 27E7     		b	.L54
 1011              	.L69:
 1012 0292 00BFAFF3 		.align	3
 1012      0080
 1013              	.L68:
 1014 0298 9A999999 		.word	-1717986918
 1015 029c 9999B93F 		.word	1069128089
 1016 02a0 00E100E0 		.word	-536813312
 1017 02a4 00000000 		.word	.LANCHOR0
 1018 02a8 00000000 		.word	receiving_buffer_ptr
 1019 02ac 00000000 		.word	processing_buffer_ptr
 1020 02b0 00000000 		.word	pid_linv
 1021 02b4 00000000 		.word	pid_angv
 1022 02b8 00000000 		.word	TX_ISR_vect
 1023 02bc 00000000 		.word	RX_ISR_vect
 1024 02c0 00000000 		.word	ENCODER_R0_OVF_ISR_vect
 1025 02c4 00000000 		.word	ENCODER_L0_OVF_ISR_vect
 1026 02c8 00000000 		.word	ENC_R0_ISR_vect
 1027 02cc 00000000 		.word	ENC_L0_ISR_vect
 1028 02d0 00000000 		.word	ENC_R1_ISR_vect
 1029 02d4 00000000 		.word	ENC_L1_ISR_vect
 1030 02d8 00000000 		.word	.LC0
 1031 02dc 38000000 		.word	.LC1
 1032 02e0 80E100E0 		.word	-536813184
 1033 02e4 0000903F 		.word	1066401792
 1034 02e8 48000000 		.word	.LC2
 1035 02ec 00000000 		.word	.LANCHOR1
 1036 02f0 0000F03F 		.word	1072693248
 1037              	.LBE2:
 1038              		.cfi_endproc
 1039              	.LFE74:
 1040              		.size	main, .-main
 1041              		.comm	pid_angv,40,8
 1042              		.comm	pid_linv,40,8
 1043              		.global	L_direction
 1044              		.global	R_direction
 1045              		.global	timerR0_index
 1046              		.global	timerL0_index
 1047              		.global	timerR0_overflows
 1048              		.global	timerL0_overflows
 1049              		.global	timerR0_count
 1050              		.global	timerL0_count
 1051              		.global	rx_buffer_size
 1052              		.comm	processing_buffer_ptr,4,4
 1053              		.comm	receiving_buffer_ptr,4,4
 1054              		.global	buffer_2
 1055              		.global	buffer_1
 1056              		.data
 1057              		.set	.LANCHOR1,. + 0
 1058              		.type	R_direction, %object
ARM GAS  C:\Users\bscj\AppData\Local\Temp\cceFw1QO.s 			page 29


 1059              		.size	R_direction, 1
 1060              	R_direction:
 1061 0000 01       		.byte	1
 1062              		.type	L_direction, %object
 1063              		.size	L_direction, 1
 1064              	L_direction:
 1065 0001 01       		.byte	1
 1066              		.section	.rodata.str1.4,"aMS",%progbits,1
 1067              		.align	2
 1068              	.LC0:
 1069 0000 57656C63 		.ascii	"Welcome to the ROBOT SOCCER TEST DEBUGGING TERMINAL"
 1069      6F6D6520 
 1069      746F2074 
 1069      68652052 
 1069      4F424F54 
 1070 0033 0A0D00   		.ascii	"\012\015\000"
 1071 0036 0000     		.space	2
 1072              	.LC1:
 1073 0038 526F626F 		.ascii	"Robot ID: %d\015\012\000"
 1073      74204944 
 1073      3A202564 
 1073      0D0A00
 1074 0047 00       		.space	1
 1075              	.LC2:
 1076 0048 526F626F 		.ascii	"Robot data received for the robot in question is ov"
 1076      74206461 
 1076      74612072 
 1076      65636569 
 1076      76656420 
 1077 007b 65722074 		.ascii	"er the length of the receive buffer size\012\015\000"
 1077      6865206C 
 1077      656E6774 
 1077      68206F66 
 1077      20746865 
 1078              		.bss
 1079              		.align	2
 1080              		.set	.LANCHOR0,. + 0
 1081              		.type	timerR0_index, %object
 1082              		.size	timerR0_index, 1
 1083              	timerR0_index:
 1084 0000 00       		.space	1
 1085 0001 000000   		.space	3
 1086              		.type	timerR0_overflows, %object
 1087              		.size	timerR0_overflows, 5
 1088              	timerR0_overflows:
 1089 0004 00000000 		.space	5
 1089      00
 1090              		.type	timerL0_index, %object
 1091              		.size	timerL0_index, 1
 1092              	timerL0_index:
 1093 0009 00       		.space	1
 1094 000a 0000     		.space	2
 1095              		.type	timerL0_overflows, %object
 1096              		.size	timerL0_overflows, 5
 1097              	timerL0_overflows:
 1098 000c 00000000 		.space	5
 1098      00
ARM GAS  C:\Users\bscj\AppData\Local\Temp\cceFw1QO.s 			page 30


 1099 0011 000000   		.space	3
 1100              		.type	timerR0_count, %object
 1101              		.size	timerR0_count, 10
 1102              	timerR0_count:
 1103 0014 00000000 		.space	10
 1103      00000000 
 1103      0000
 1104 001e 0000     		.space	2
 1105              		.type	timerL0_count, %object
 1106              		.size	timerL0_count, 10
 1107              	timerL0_count:
 1108 0020 00000000 		.space	10
 1108      00000000 
 1108      0000
 1109              		.type	rx_buffer_size, %object
 1110              		.size	rx_buffer_size, 1
 1111              	rx_buffer_size:
 1112 002a 00       		.space	1
 1113 002b 00       		.space	1
 1114              		.type	buffer_1, %object
 1115              		.size	buffer_1, 100
 1116              	buffer_1:
 1117 002c 00000000 		.space	100
 1117      00000000 
 1117      00000000 
 1117      00000000 
 1117      00000000 
 1118              		.type	buffer_2, %object
 1119              		.size	buffer_2, 100
 1120              	buffer_2:
 1121 0090 00000000 		.space	100
 1121      00000000 
 1121      00000000 
 1121      00000000 
 1121      00000000 
 1122              		.text
 1123              	.Letext0:
 1124              		.file 2 "c:\\program files (x86)\\cypress\\psoc creator\\4.4\\psoc creator\\import\\gnu\\arm\\5.4.
 1125              		.file 3 "c:\\program files (x86)\\cypress\\psoc creator\\4.4\\psoc creator\\import\\gnu\\arm\\5.4.
 1126              		.file 4 "Generated_Source\\PSoC5/cytypes.h"
 1127              		.file 5 "robotmove.h"
 1128              		.file 6 "Generated_Source\\PSoC5/core_cm3.h"
 1129              		.file 7 "Generated_Source\\PSoC5/Encoder_R0_Timer.h"
 1130              		.file 8 "Generated_Source\\PSoC5/Encoder_L0_Timer.h"
 1131              		.file 9 "Generated_Source\\PSoC5/Encoder_R0.h"
 1132              		.file 10 "Generated_Source\\PSoC5/Encoder_R1.h"
 1133              		.file 11 "Generated_Source\\PSoC5/Encoder_L0.h"
 1134              		.file 12 "Generated_Source\\PSoC5/Encoder_L1.h"
 1135              		.file 13 "Generated_Source\\PSoC5/USBUART_cdc.h"
 1136              		.file 14 "c:\\program files (x86)\\cypress\\psoc creator\\4.4\\psoc creator\\import\\gnu\\arm\\5.4
 1137              		.file 15 "Generated_Source\\PSoC5/UART.h"
 1138              		.file 16 "encoder.h"
 1139              		.file 17 "Generated_Source\\PSoC5/PWM_RESET.h"
 1140              		.file 18 "Generated_Source\\PSoC5/ENCODER_TMR_RESET.h"
 1141              		.file 19 "Generated_Source\\PSoC5/USBUART.h"
 1142              		.file 20 "Generated_Source\\PSoC5/PWM_L.h"
 1143              		.file 21 "Generated_Source\\PSoC5/PWM_R.h"
ARM GAS  C:\Users\bscj\AppData\Local\Temp\cceFw1QO.s 			page 31


 1144              		.file 22 "robot_ID.h"
 1145              		.file 23 "c:\\program files (x86)\\cypress\\psoc creator\\4.4\\psoc creator\\import\\gnu\\arm\\5.4
 1146              		.file 24 "Generated_Source\\PSoC5/tx_isr.h"
 1147              		.file 25 "Generated_Source\\PSoC5/rx_isr.h"
 1148              		.file 26 "Generated_Source\\PSoC5/ENCODER_R0_OVF_ISR.h"
 1149              		.file 27 "Generated_Source\\PSoC5/ENCODER_L0_OVF_ISR.h"
 1150              		.file 28 "Generated_Source\\PSoC5/ENC_R0_ISR.h"
 1151              		.file 29 "Generated_Source\\PSoC5/ENC_L0_ISR.h"
 1152              		.file 30 "Generated_Source\\PSoC5/ENC_R1_ISR.h"
 1153              		.file 31 "Generated_Source\\PSoC5/ENC_L1_ISR.h"
 1154              		.file 32 "c:\\program files (x86)\\cypress\\psoc creator\\4.4\\psoc creator\\import\\gnu\\arm\\5.4