ARM GAS  C:\Users\bscj\AppData\Local\Temp\ccTsJ6o3.s 			page 1


   1              		.syntax unified
   2              		.cpu cortex-m3
   3              		.fpu softvfp
   4              		.eabi_attribute 20, 1
   5              		.eabi_attribute 21, 1
   6              		.eabi_attribute 23, 3
   7              		.eabi_attribute 24, 1
   8              		.eabi_attribute 25, 1
   9              		.eabi_attribute 26, 1
  10              		.eabi_attribute 30, 1
  11              		.eabi_attribute 34, 1
  12              		.eabi_attribute 18, 4
  13              		.thumb
  14              		.syntax unified
  15              		.file	"robotmove.c"
  16              		.text
  17              	.Ltext0:
  18              		.cfi_sections	.debug_frame
  19              		.global	__aeabi_dadd
  20              		.global	__aeabi_dmul
  21              		.global	__aeabi_ddiv
  22              		.section	.text.RPM_to_radps,"ax",%progbits
  23              		.align	2
  24              		.global	RPM_to_radps
  25              		.thumb
  26              		.thumb_func
  27              		.type	RPM_to_radps, %function
  28              	RPM_to_radps:
  29              	.LFB66:
  30              		.file 1 "robotmove.c"
   1:robotmove.c   **** /* ========================================
   2:robotmove.c   ****  * 
   3:robotmove.c   ****  * robotmove.c
   4:robotmove.c   ****  * Authors: chay322
   5:robotmove.c   ****  * All Rights Reserved
   6:robotmove.c   ****  * UNPUBLISHED, LICENSED SOFTWARE.
   7:robotmove.c   ****  *
   8:robotmove.c   ****  * ========================================
   9:robotmove.c   **** */
  10:robotmove.c   **** #include "project.h"
  11:robotmove.c   **** #include "robotmove.h"
  12:robotmove.c   **** #include "encoder.h"
  13:robotmove.c   **** 
  14:robotmove.c   **** /* Function: move_right_motor
  15:robotmove.c   ****  * Purpose: Turns the right wheel of the robot at the specified angular velocity
  16:robotmove.c   ****  * Inputs: double angv - the target angular velocity [rad/s] of the right wheel
  17:robotmove.c   ****  *         uint16_t motor_max_rpm  - the max rpm of the motor powered with a 100% duty cycle
  18:robotmove.c   ****  *                  [negative angv: anticlockwise/counterclockwise, positive angv: clockwise]
  19:robotmove.c   ****  * Outputs: none
  20:robotmove.c   ****  *                      
  21:robotmove.c   ****  */
  22:robotmove.c   **** void move_right_motor(double angv, uint16_t motor_max_rpm){
  23:robotmove.c   ****     //Obtain the duty cycle to apply to the pin
  24:robotmove.c   ****     int8_t duty_cycle = radps_to_duty_cycle(angv, motor_max_rpm);
  25:robotmove.c   ****     int8_t count_value = (int8_t)(duty_cycle/100.0 * 255); //8-bit PWM components have a max count 
  26:robotmove.c   ****     //Apply the duty cycle to the output pins depending on the sign of duty_cycle
  27:robotmove.c   ****     if(duty_cycle > 0){ //Clockwise
ARM GAS  C:\Users\bscj\AppData\Local\Temp\ccTsJ6o3.s 			page 2


  28:robotmove.c   ****         PWM_R_WriteCompare1(count_value);
  29:robotmove.c   ****         PWM_R_WriteCompare2(0);  //Ground the other PWM pin
  30:robotmove.c   ****     } else { //Anticlockwise
  31:robotmove.c   ****         PWM_R_WriteCompare1(0); //Ground the other PWM pin
  32:robotmove.c   ****         PWM_R_WriteCompare2(count_value * -1); //Take the magnitude of the count value
  33:robotmove.c   ****     }
  34:robotmove.c   **** }
  35:robotmove.c   **** 
  36:robotmove.c   **** /* Function: move_left_motor
  37:robotmove.c   ****  * Purpose: Turns the left wheel of the robot at the specified angular velocity
  38:robotmove.c   ****  * Inputs: double angv - the target angular velocity [rad/s] of the left wheel
  39:robotmove.c   ****  *         uint16_t motor_max_rpm  - the max rpm of the motor powered with a 100% duty cycle
  40:robotmove.c   ****  *                  [negative angv: anticlockwise/counterclockwise, positive angv: clockwise]
  41:robotmove.c   ****  * Outputs: none
  42:robotmove.c   ****  *                      
  43:robotmove.c   ****  */
  44:robotmove.c   **** void move_left_motor(double angv, uint16_t motor_max_rpm){
  45:robotmove.c   ****     //Obtain the duty cycle to apply to the pin
  46:robotmove.c   ****     int8_t duty_cycle = radps_to_duty_cycle(angv, motor_max_rpm);
  47:robotmove.c   ****     int8_t count_value = (int8_t)(duty_cycle/100.0 * 255); //8-bit PWM components have a max count 
  48:robotmove.c   ****     //Apply the duty cycle to the output pins depending on the sign of duty_cycle
  49:robotmove.c   ****     if(duty_cycle > 0){ //Clockwise
  50:robotmove.c   ****         PWM_L_WriteCompare1(count_value);
  51:robotmove.c   ****         PWM_L_WriteCompare2(0);  //Ground the other PWM pin
  52:robotmove.c   ****     } else { //Anticlockwise
  53:robotmove.c   ****         PWM_L_WriteCompare1(0); //Ground the other PWM pin
  54:robotmove.c   ****         PWM_L_WriteCompare2(count_value * -1); //Obtain the magnitude of the count value
  55:robotmove.c   ****     }
  56:robotmove.c   **** }
  57:robotmove.c   **** 
  58:robotmove.c   **** /* Function: move_robot
  59:robotmove.c   ****  * Purpose: Moves the robot with the desired linear and angular velocity components.  This 
  60:robotmove.c   ****  *          should be considered the input to the robot plant (so is not a PID controller)
  61:robotmove.c   ****  * Inputs: double linv - the target linear velocity component [m/s] of the robot
  62:robotmove.c   ****  *         double angv - the target angular velocity component [rad/s] of the robot
  63:robotmove.c   ****  *         double robot_width - the distance [m] between the two wheels on the robot
  64:robotmove.c   ****            double wheel_diameter - the diameter [m] between the wheels
  65:robotmove.c   ****  *         uint16_t motor_max_rpm  - the max rpm of the motor powered with a 100% duty cycle
  66:robotmove.c   ****  *                  [negative angv: anticlockwise/counterclockwise, positive angv: clockwise]
  67:robotmove.c   ****  *                  [negative linv: backwards, positive linv: forwards]
  68:robotmove.c   ****  *         uint8_t gear_ratio - the ratio wheel_gear_teeth/motor_shaft_teeth which determines
  69:robotmove.c   ****                                 how many times the motor turns for the wheel to turn a full 360
  70:robotmove.c   ****  * Outputs: none
  71:robotmove.c   ****  *                      
  72:robotmove.c   ****  */
  73:robotmove.c   **** void move_robot(double linv, double angv, double robot_width, double wheel_diameter, uint16_t motor
  74:robotmove.c   ****     //Calculate the relevant linear velocities which the wheels must generate
  75:robotmove.c   ****     double v_left = get_robot_v_left(linv, angv, robot_width);
  76:robotmove.c   ****     double v_right = get_robot_v_right(linv, angv, robot_width); 
  77:robotmove.c   ****     
  78:robotmove.c   ****     //Convert to the angular velocity to turn the motor shafts
  79:robotmove.c   ****     double motor_l_angv = wheel_linv_to_motor_angv(v_left, gear_ratio, wheel_diameter); 
  80:robotmove.c   ****     double motor_r_angv = wheel_linv_to_motor_angv(v_right, gear_ratio, wheel_diameter);
  81:robotmove.c   ****     
  82:robotmove.c   ****     //Drive the wheels as required
  83:robotmove.c   ****     move_left_motor(motor_l_angv, motor_max_rpm);
  84:robotmove.c   ****     move_right_motor(motor_r_angv, motor_max_rpm);
ARM GAS  C:\Users\bscj\AppData\Local\Temp\ccTsJ6o3.s 			page 3


  85:robotmove.c   **** }
  86:robotmove.c   **** 
  87:robotmove.c   **** /* Function: RPM_to_radps
  88:robotmove.c   ****  * Purpose: Converts an RPM value to rad/s
  89:robotmove.c   ****  * Inputs: double RPM - the angular RPM value
  90:robotmove.c   ****  *         
  91:robotmove.c   ****  * Outputs: double - the rad/s equivalent of the RPM input
  92:robotmove.c   ****  *                      
  93:robotmove.c   ****  */
  94:robotmove.c   **** double RPM_to_radps(double RPM){
  31              		.loc 1 94 0
  32              		.cfi_startproc
  33              		@ args = 0, pretend = 0, frame = 0
  34              		@ frame_needed = 0, uses_anonymous_args = 0
  35              	.LVL0:
  36 0000 08B5     		push	{r3, lr}
  37              		.cfi_def_cfa_offset 8
  38              		.cfi_offset 3, -8
  39              		.cfi_offset 14, -4
  95:robotmove.c   ****     return RPM * 2 * 3.14159 / 60;
  40              		.loc 1 95 0
  41 0002 0246     		mov	r2, r0
  42 0004 0B46     		mov	r3, r1
  43 0006 FFF7FEFF 		bl	__aeabi_dadd
  44              	.LVL1:
  45 000a 05A3     		adr	r3, .L3
  46 000c D3E90023 		ldrd	r2, [r3]
  47 0010 FFF7FEFF 		bl	__aeabi_dmul
  48              	.LVL2:
  49 0014 0022     		movs	r2, #0
  50 0016 044B     		ldr	r3, .L3+8
  51 0018 FFF7FEFF 		bl	__aeabi_ddiv
  52              	.LVL3:
  96:robotmove.c   **** }
  53              		.loc 1 96 0
  54 001c 08BD     		pop	{r3, pc}
  55              	.L4:
  56 001e 00BF     		.align	3
  57              	.L3:
  58 0020 6E861BF0 		.word	-266631570
  59 0024 F9210940 		.word	1074340345
  60 0028 00004E40 		.word	1078853632
  61              		.cfi_endproc
  62              	.LFE66:
  63              		.size	RPM_to_radps, .-RPM_to_radps
  64              		.section	.text.radps_to_RPM,"ax",%progbits
  65              		.align	2
  66              		.global	radps_to_RPM
  67              		.thumb
  68              		.thumb_func
  69              		.type	radps_to_RPM, %function
  70              	radps_to_RPM:
  71              	.LFB67:
  97:robotmove.c   **** 
  98:robotmove.c   **** /* Function: radps_to_RPM
  99:robotmove.c   ****  * Purpose: Converts a rad/s value to RPM
 100:robotmove.c   ****  * Inputs: double radps - the angular rad/s value
ARM GAS  C:\Users\bscj\AppData\Local\Temp\ccTsJ6o3.s 			page 4


 101:robotmove.c   ****  *         
 102:robotmove.c   ****  * Outputs: double - the RPM equivalent of the rad/s input
 103:robotmove.c   ****  *                      
 104:robotmove.c   ****  */
 105:robotmove.c   **** double radps_to_RPM(double radps){
  72              		.loc 1 105 0
  73              		.cfi_startproc
  74              		@ args = 0, pretend = 0, frame = 0
  75              		@ frame_needed = 0, uses_anonymous_args = 0
  76              	.LVL4:
  77 0000 08B5     		push	{r3, lr}
  78              		.cfi_def_cfa_offset 8
  79              		.cfi_offset 3, -8
  80              		.cfi_offset 14, -4
 106:robotmove.c   ****     return radps * 60 / (2 * 3.14159);
  81              		.loc 1 106 0
  82 0002 0022     		movs	r2, #0
  83 0004 064B     		ldr	r3, .L7+8
  84 0006 FFF7FEFF 		bl	__aeabi_dmul
  85              	.LVL5:
  86 000a 03A3     		adr	r3, .L7
  87 000c D3E90023 		ldrd	r2, [r3]
  88 0010 FFF7FEFF 		bl	__aeabi_ddiv
  89              	.LVL6:
 107:robotmove.c   **** }
  90              		.loc 1 107 0
  91 0014 08BD     		pop	{r3, pc}
  92              	.L8:
  93 0016 00BF     		.align	3
  94              	.L7:
  95 0018 6E861BF0 		.word	-266631570
  96 001c F9211940 		.word	1075388921
  97 0020 00004E40 		.word	1078853632
  98              		.cfi_endproc
  99              	.LFE67:
 100              		.size	radps_to_RPM, .-radps_to_RPM
 101              		.global	__aeabi_ui2d
 102              		.global	__aeabi_dcmpge
 103              		.global	__aeabi_dcmplt
 104              		.global	__aeabi_d2iz
 105              		.section	.text.radps_to_duty_cycle,"ax",%progbits
 106              		.align	2
 107              		.global	radps_to_duty_cycle
 108              		.thumb
 109              		.thumb_func
 110              		.type	radps_to_duty_cycle, %function
 111              	radps_to_duty_cycle:
 112              	.LFB68:
 108:robotmove.c   **** 
 109:robotmove.c   **** /* Function: radps_to_duty_cycle
 110:robotmove.c   ****  * Purpose: Converts a target rad/s value to the necessary duty cycle to drive the motor
 111:robotmove.c   ****  * Inputs: double radps - the target angular rad/s value
 112:robotmove.c   ****  *         uint16_t motor_max_rpm - the maximum angular velocity in RPM the motor can rotate at 100
 113:robotmove.c   ****  *         
 114:robotmove.c   ****  * Outputs: int8_t - the duty cycle to apply, with the magnitude ranging from 0 - 100.
 115:robotmove.c   ****  *                  The sign indicates which direction the duty cycle should be applied to the moto
 116:robotmove.c   ****  *                  Positive -> clockwise, Negative -> anticlockwise/counterclockwise
ARM GAS  C:\Users\bscj\AppData\Local\Temp\ccTsJ6o3.s 			page 5


 117:robotmove.c   ****  *                      
 118:robotmove.c   ****  */
 119:robotmove.c   **** int8_t radps_to_duty_cycle(double radps, uint16_t motor_max_rpm){
 113              		.loc 1 119 0
 114              		.cfi_startproc
 115              		@ args = 0, pretend = 0, frame = 0
 116              		@ frame_needed = 0, uses_anonymous_args = 0
 117              	.LVL7:
 118 0000 F8B5     		push	{r3, r4, r5, r6, r7, lr}
 119              		.cfi_def_cfa_offset 24
 120              		.cfi_offset 3, -24
 121              		.cfi_offset 4, -20
 122              		.cfi_offset 5, -16
 123              		.cfi_offset 6, -12
 124              		.cfi_offset 7, -8
 125              		.cfi_offset 14, -4
 126 0002 0546     		mov	r5, r0
 127 0004 0C46     		mov	r4, r1
 120:robotmove.c   ****     //Convert the max rpm of the motor to radps
 121:robotmove.c   ****     double motor_max_radps = RPM_to_radps((double)motor_max_rpm);
 128              		.loc 1 121 0
 129 0006 1046     		mov	r0, r2
 130              	.LVL8:
 131 0008 FFF7FEFF 		bl	__aeabi_ui2d
 132              	.LVL9:
 133 000c FFF7FEFF 		bl	RPM_to_radps
 134              	.LVL10:
 135 0010 0646     		mov	r6, r0
 136 0012 0F46     		mov	r7, r1
 137              	.LVL11:
 122:robotmove.c   ****     
 123:robotmove.c   ****     int8_t duty_cycle;
 124:robotmove.c   ****     //If the magnitiude of the radps is greater than motor_max_radps set the duty cycle to 100
 125:robotmove.c   ****     //Store only the integer part of the solution as greater accuracy is not necessary
 126:robotmove.c   ****     if((radps >= 0 && radps <= motor_max_radps) || (radps < 0 && radps*(-1) <= motor_max_radps)){
 138              		.loc 1 126 0
 139 0014 0022     		movs	r2, #0
 140 0016 0023     		movs	r3, #0
 141 0018 2846     		mov	r0, r5
 142 001a 2146     		mov	r1, r4
 143 001c FFF7FEFF 		bl	__aeabi_dcmpge
 144              	.LVL12:
 145 0020 30B1     		cbz	r0, .L10
 146              		.loc 1 126 0 is_stmt 0 discriminator 1
 147 0022 2A46     		mov	r2, r5
 148 0024 2346     		mov	r3, r4
 149 0026 3046     		mov	r0, r6
 150 0028 3946     		mov	r1, r7
 151 002a FFF7FEFF 		bl	__aeabi_dcmpge
 152              	.LVL13:
 153 002e 70B9     		cbnz	r0, .L12
 154              	.L10:
 155              		.loc 1 126 0 discriminator 3
 156 0030 0022     		movs	r2, #0
 157 0032 0023     		movs	r3, #0
 158 0034 2846     		mov	r0, r5
 159 0036 2146     		mov	r1, r4
ARM GAS  C:\Users\bscj\AppData\Local\Temp\ccTsJ6o3.s 			page 6


 160 0038 FFF7FEFF 		bl	__aeabi_dcmplt
 161              	.LVL14:
 162 003c A8B1     		cbz	r0, .L20
 163              		.loc 1 126 0 discriminator 4
 164 003e 2A46     		mov	r2, r5
 165 0040 04F10043 		add	r3, r4, #-2147483648
 166 0044 3046     		mov	r0, r6
 167 0046 3946     		mov	r1, r7
 168 0048 FFF7FEFF 		bl	__aeabi_dcmpge
 169              	.LVL15:
 170 004c 78B1     		cbz	r0, .L21
 171              	.L12:
 127:robotmove.c   ****         duty_cycle = (int8_t)((double)radps / motor_max_radps * 100);   
 172              		.loc 1 127 0 is_stmt 1
 173 004e 3246     		mov	r2, r6
 174 0050 3B46     		mov	r3, r7
 175 0052 2846     		mov	r0, r5
 176 0054 2146     		mov	r1, r4
 177 0056 FFF7FEFF 		bl	__aeabi_ddiv
 178              	.LVL16:
 179 005a 0022     		movs	r2, #0
 180 005c 054B     		ldr	r3, .L23
 181 005e FFF7FEFF 		bl	__aeabi_dmul
 182              	.LVL17:
 183 0062 FFF7FEFF 		bl	__aeabi_d2iz
 184              	.LVL18:
 185 0066 40B2     		sxtb	r0, r0
 186              	.LVL19:
 187 0068 F8BD     		pop	{r3, r4, r5, r6, r7, pc}
 188              	.LVL20:
 189              	.L20:
 128:robotmove.c   ****     } else {
 129:robotmove.c   ****         duty_cycle = 100;   
 190              		.loc 1 129 0
 191 006a 6420     		movs	r0, #100
 192 006c F8BD     		pop	{r3, r4, r5, r6, r7, pc}
 193              	.LVL21:
 194              	.L21:
 195 006e 6420     		movs	r0, #100
 196              	.LVL22:
 130:robotmove.c   ****     }  
 131:robotmove.c   ****     return duty_cycle;
 132:robotmove.c   **** }
 197              		.loc 1 132 0
 198 0070 F8BD     		pop	{r3, r4, r5, r6, r7, pc}
 199              	.LVL23:
 200              	.L24:
 201 0072 00BF     		.align	2
 202              	.L23:
 203 0074 00005940 		.word	1079574528
 204              		.cfi_endproc
 205              	.LFE68:
 206              		.size	radps_to_duty_cycle, .-radps_to_duty_cycle
 207              		.global	__aeabi_i2d
 208              		.section	.text.move_right_motor,"ax",%progbits
 209              		.align	2
 210              		.global	move_right_motor
ARM GAS  C:\Users\bscj\AppData\Local\Temp\ccTsJ6o3.s 			page 7


 211              		.thumb
 212              		.thumb_func
 213              		.type	move_right_motor, %function
 214              	move_right_motor:
 215              	.LFB63:
  22:robotmove.c   ****     //Obtain the duty cycle to apply to the pin
 216              		.loc 1 22 0
 217              		.cfi_startproc
 218              		@ args = 0, pretend = 0, frame = 0
 219              		@ frame_needed = 0, uses_anonymous_args = 0
 220              	.LVL24:
 221 0000 38B5     		push	{r3, r4, r5, lr}
 222              		.cfi_def_cfa_offset 16
 223              		.cfi_offset 3, -16
 224              		.cfi_offset 4, -12
 225              		.cfi_offset 5, -8
 226              		.cfi_offset 14, -4
  24:robotmove.c   ****     int8_t count_value = (int8_t)(duty_cycle/100.0 * 255); //8-bit PWM components have a max count 
 227              		.loc 1 24 0
 228 0002 FFF7FEFF 		bl	radps_to_duty_cycle
 229              	.LVL25:
 230 0006 0546     		mov	r5, r0
 231              	.LVL26:
  25:robotmove.c   ****     //Apply the duty cycle to the output pins depending on the sign of duty_cycle
 232              		.loc 1 25 0
 233 0008 FFF7FEFF 		bl	__aeabi_i2d
 234              	.LVL27:
 235 000c 0022     		movs	r2, #0
 236 000e 104B     		ldr	r3, .L29+8
 237 0010 FFF7FEFF 		bl	__aeabi_ddiv
 238              	.LVL28:
 239 0014 0CA3     		adr	r3, .L29
 240 0016 D3E90023 		ldrd	r2, [r3]
 241 001a FFF7FEFF 		bl	__aeabi_dmul
 242              	.LVL29:
 243 001e FFF7FEFF 		bl	__aeabi_d2iz
 244              	.LVL30:
 245 0022 44B2     		sxtb	r4, r0
 246              	.LVL31:
  27:robotmove.c   ****         PWM_R_WriteCompare1(count_value);
 247              		.loc 1 27 0
 248 0024 002D     		cmp	r5, #0
 249 0026 06DD     		ble	.L26
  28:robotmove.c   ****         PWM_R_WriteCompare2(0);  //Ground the other PWM pin
 250              		.loc 1 28 0
 251 0028 E0B2     		uxtb	r0, r4
 252 002a FFF7FEFF 		bl	PWM_R_WriteCompare1
 253              	.LVL32:
  29:robotmove.c   ****     } else { //Anticlockwise
 254              		.loc 1 29 0
 255 002e 0020     		movs	r0, #0
 256 0030 FFF7FEFF 		bl	PWM_R_WriteCompare2
 257              	.LVL33:
 258 0034 38BD     		pop	{r3, r4, r5, pc}
 259              	.LVL34:
 260              	.L26:
  31:robotmove.c   ****         PWM_R_WriteCompare2(count_value * -1); //Take the magnitude of the count value
ARM GAS  C:\Users\bscj\AppData\Local\Temp\ccTsJ6o3.s 			page 8


 261              		.loc 1 31 0
 262 0036 0020     		movs	r0, #0
 263 0038 FFF7FEFF 		bl	PWM_R_WriteCompare1
 264              	.LVL35:
  32:robotmove.c   ****     }
 265              		.loc 1 32 0
 266 003c 6042     		negs	r0, r4
 267 003e C0B2     		uxtb	r0, r0
 268 0040 FFF7FEFF 		bl	PWM_R_WriteCompare2
 269              	.LVL36:
 270 0044 38BD     		pop	{r3, r4, r5, pc}
 271              	.LVL37:
 272              	.L30:
 273 0046 00BF     		.align	3
 274              	.L29:
 275 0048 00000000 		.word	0
 276 004c 00E06F40 		.word	1081073664
 277 0050 00005940 		.word	1079574528
 278              		.cfi_endproc
 279              	.LFE63:
 280              		.size	move_right_motor, .-move_right_motor
 281              		.section	.text.move_left_motor,"ax",%progbits
 282              		.align	2
 283              		.global	move_left_motor
 284              		.thumb
 285              		.thumb_func
 286              		.type	move_left_motor, %function
 287              	move_left_motor:
 288              	.LFB64:
  44:robotmove.c   ****     //Obtain the duty cycle to apply to the pin
 289              		.loc 1 44 0
 290              		.cfi_startproc
 291              		@ args = 0, pretend = 0, frame = 0
 292              		@ frame_needed = 0, uses_anonymous_args = 0
 293              	.LVL38:
 294 0000 38B5     		push	{r3, r4, r5, lr}
 295              		.cfi_def_cfa_offset 16
 296              		.cfi_offset 3, -16
 297              		.cfi_offset 4, -12
 298              		.cfi_offset 5, -8
 299              		.cfi_offset 14, -4
  46:robotmove.c   ****     int8_t count_value = (int8_t)(duty_cycle/100.0 * 255); //8-bit PWM components have a max count 
 300              		.loc 1 46 0
 301 0002 FFF7FEFF 		bl	radps_to_duty_cycle
 302              	.LVL39:
 303 0006 0546     		mov	r5, r0
 304              	.LVL40:
  47:robotmove.c   ****     //Apply the duty cycle to the output pins depending on the sign of duty_cycle
 305              		.loc 1 47 0
 306 0008 FFF7FEFF 		bl	__aeabi_i2d
 307              	.LVL41:
 308 000c 0022     		movs	r2, #0
 309 000e 104B     		ldr	r3, .L35+8
 310 0010 FFF7FEFF 		bl	__aeabi_ddiv
 311              	.LVL42:
 312 0014 0CA3     		adr	r3, .L35
 313 0016 D3E90023 		ldrd	r2, [r3]
ARM GAS  C:\Users\bscj\AppData\Local\Temp\ccTsJ6o3.s 			page 9


 314 001a FFF7FEFF 		bl	__aeabi_dmul
 315              	.LVL43:
 316 001e FFF7FEFF 		bl	__aeabi_d2iz
 317              	.LVL44:
 318 0022 44B2     		sxtb	r4, r0
 319              	.LVL45:
  49:robotmove.c   ****         PWM_L_WriteCompare1(count_value);
 320              		.loc 1 49 0
 321 0024 002D     		cmp	r5, #0
 322 0026 06DD     		ble	.L32
  50:robotmove.c   ****         PWM_L_WriteCompare2(0);  //Ground the other PWM pin
 323              		.loc 1 50 0
 324 0028 E0B2     		uxtb	r0, r4
 325 002a FFF7FEFF 		bl	PWM_L_WriteCompare1
 326              	.LVL46:
  51:robotmove.c   ****     } else { //Anticlockwise
 327              		.loc 1 51 0
 328 002e 0020     		movs	r0, #0
 329 0030 FFF7FEFF 		bl	PWM_L_WriteCompare2
 330              	.LVL47:
 331 0034 38BD     		pop	{r3, r4, r5, pc}
 332              	.LVL48:
 333              	.L32:
  53:robotmove.c   ****         PWM_L_WriteCompare2(count_value * -1); //Obtain the magnitude of the count value
 334              		.loc 1 53 0
 335 0036 0020     		movs	r0, #0
 336 0038 FFF7FEFF 		bl	PWM_L_WriteCompare1
 337              	.LVL49:
  54:robotmove.c   ****     }
 338              		.loc 1 54 0
 339 003c 6042     		negs	r0, r4
 340 003e C0B2     		uxtb	r0, r0
 341 0040 FFF7FEFF 		bl	PWM_L_WriteCompare2
 342              	.LVL50:
 343 0044 38BD     		pop	{r3, r4, r5, pc}
 344              	.LVL51:
 345              	.L36:
 346 0046 00BF     		.align	3
 347              	.L35:
 348 0048 00000000 		.word	0
 349 004c 00E06F40 		.word	1081073664
 350 0050 00005940 		.word	1079574528
 351              		.cfi_endproc
 352              	.LFE64:
 353              		.size	move_left_motor, .-move_left_motor
 354              		.section	.text.move_robot,"ax",%progbits
 355              		.align	2
 356              		.global	move_robot
 357              		.thumb
 358              		.thumb_func
 359              		.type	move_robot, %function
 360              	move_robot:
 361              	.LFB65:
  73:robotmove.c   ****     //Calculate the relevant linear velocities which the wheels must generate
 362              		.loc 1 73 0
 363              		.cfi_startproc
 364              		@ args = 24, pretend = 0, frame = 16
ARM GAS  C:\Users\bscj\AppData\Local\Temp\ccTsJ6o3.s 			page 10


 365              		@ frame_needed = 0, uses_anonymous_args = 0
 366              	.LVL52:
 367 0000 2DE9F04F 		push	{r4, r5, r6, r7, r8, r9, r10, fp, lr}
 368              		.cfi_def_cfa_offset 36
 369              		.cfi_offset 4, -36
 370              		.cfi_offset 5, -32
 371              		.cfi_offset 6, -28
 372              		.cfi_offset 7, -24
 373              		.cfi_offset 8, -20
 374              		.cfi_offset 9, -16
 375              		.cfi_offset 10, -12
 376              		.cfi_offset 11, -8
 377              		.cfi_offset 14, -4
 378 0004 87B0     		sub	sp, sp, #28
 379              		.cfi_def_cfa_offset 64
 380 0006 CDE90201 		strd	r0, [sp, #8]
 381 000a CDE90423 		strd	r2, [sp, #16]
 382 000e DDE91089 		ldrd	r8, [sp, #64]
 383 0012 DDE912AB 		ldrd	r10, [sp, #72]
 384 0016 BDF85040 		ldrh	r4, [sp, #80]
 385 001a 9DF85450 		ldrb	r5, [sp, #84]	@ zero_extendqisi2
  75:robotmove.c   ****     double v_right = get_robot_v_right(linv, angv, robot_width); 
 386              		.loc 1 75 0
 387 001e CDE90089 		strd	r8, [sp]
 388 0022 FFF7FEFF 		bl	get_robot_v_left
 389              	.LVL53:
 390 0026 0646     		mov	r6, r0
 391 0028 0F46     		mov	r7, r1
 392              	.LVL54:
  76:robotmove.c   ****     
 393              		.loc 1 76 0
 394 002a CDE90089 		strd	r8, [sp]
 395 002e DDE90423 		ldrd	r2, [sp, #16]
 396 0032 DDE90201 		ldrd	r0, [sp, #8]
 397 0036 FFF7FEFF 		bl	get_robot_v_right
 398              	.LVL55:
 399 003a 8046     		mov	r8, r0
 400 003c 8946     		mov	r9, r1
 401              	.LVL56:
  79:robotmove.c   ****     double motor_r_angv = wheel_linv_to_motor_angv(v_right, gear_ratio, wheel_diameter);
 402              		.loc 1 79 0
 403 003e CDE900AB 		strd	r10, [sp]
 404 0042 2A46     		mov	r2, r5
 405 0044 3046     		mov	r0, r6
 406 0046 3946     		mov	r1, r7
 407 0048 FFF7FEFF 		bl	wheel_linv_to_motor_angv
 408              	.LVL57:
 409 004c 0646     		mov	r6, r0
 410              	.LVL58:
 411 004e 0F46     		mov	r7, r1
 412              	.LVL59:
  80:robotmove.c   ****     
 413              		.loc 1 80 0
 414 0050 CDE900AB 		strd	r10, [sp]
 415 0054 2A46     		mov	r2, r5
 416 0056 4046     		mov	r0, r8
 417 0058 4946     		mov	r1, r9
ARM GAS  C:\Users\bscj\AppData\Local\Temp\ccTsJ6o3.s 			page 11


 418 005a FFF7FEFF 		bl	wheel_linv_to_motor_angv
 419              	.LVL60:
 420 005e 8046     		mov	r8, r0
 421              	.LVL61:
 422 0060 8946     		mov	r9, r1
 423              	.LVL62:
  83:robotmove.c   ****     move_right_motor(motor_r_angv, motor_max_rpm);
 424              		.loc 1 83 0
 425 0062 2246     		mov	r2, r4
 426 0064 3046     		mov	r0, r6
 427 0066 3946     		mov	r1, r7
 428 0068 FFF7FEFF 		bl	move_left_motor
 429              	.LVL63:
  84:robotmove.c   **** }
 430              		.loc 1 84 0
 431 006c 2246     		mov	r2, r4
 432 006e 4046     		mov	r0, r8
 433 0070 4946     		mov	r1, r9
 434 0072 FFF7FEFF 		bl	move_right_motor
 435              	.LVL64:
  85:robotmove.c   **** 
 436              		.loc 1 85 0
 437 0076 07B0     		add	sp, sp, #28
 438              		.cfi_def_cfa_offset 36
 439              		@ sp needed
 440 0078 BDE8F08F 		pop	{r4, r5, r6, r7, r8, r9, r10, fp, pc}
 441              		.cfi_endproc
 442              	.LFE65:
 443              		.size	move_robot, .-move_robot
 444              		.section	.text.PID_initialise,"ax",%progbits
 445              		.align	2
 446              		.global	PID_initialise
 447              		.thumb
 448              		.thumb_func
 449              		.type	PID_initialise, %function
 450              	PID_initialise:
 451              	.LFB69:
 133:robotmove.c   **** 
 134:robotmove.c   **** /* PID CONTROL */
 135:robotmove.c   **** 
 136:robotmove.c   **** /* Function: PID_initialise
 137:robotmove.c   ****  * Purpose: Initialises the proportional, derivative/difference and integral/sum gains for PID cont
 138:robotmove.c   ****  * Inputs: PID_DATA *pid_data: a pointer to the PID_DATA structure to initialise the gains for
 139:robotmove.c   ****  *         double Pgain: Proportional gain to initialise the controller with
 140:robotmove.c   ****  *                Dgain: Derivative/difference gain to initialise the controller with
 141:robotmove.c   ****  *                Igain: Integral/sum gain to initialise the controller with
 142:robotmove.c   ****  * Outputs: None
 143:robotmove.c   ****  *                      
 144:robotmove.c   ****  */
 145:robotmove.c   **** void PID_initialise(PID_DATA *pid_data, double Pgain, double Dgain, double Igain){
 452              		.loc 1 145 0
 453              		.cfi_startproc
 454              		@ args = 16, pretend = 0, frame = 0
 455              		@ frame_needed = 0, uses_anonymous_args = 0
 456              		@ link register save eliminated.
 457              	.LVL65:
 146:robotmove.c   ****     pid_data->Pgain = Pgain;
ARM GAS  C:\Users\bscj\AppData\Local\Temp\ccTsJ6o3.s 			page 12


 458              		.loc 1 146 0
 459 0000 C0E90023 		strd	r2, [r0]
 147:robotmove.c   ****     pid_data->Dgain = Dgain;
 460              		.loc 1 147 0
 461 0004 DDE90023 		ldrd	r2, [sp]
 462              	.LVL66:
 463 0008 C0E90223 		strd	r2, [r0, #8]
 148:robotmove.c   ****     pid_data->Igain = Igain;
 464              		.loc 1 148 0
 465 000c DDE90223 		ldrd	r2, [sp, #8]
 466 0010 C0E90423 		strd	r2, [r0, #16]
 149:robotmove.c   ****     
 150:robotmove.c   ****     pid_data->error_sum = 0;
 467              		.loc 1 150 0
 468 0014 0022     		movs	r2, #0
 469 0016 0023     		movs	r3, #0
 470 0018 C0E90823 		strd	r2, [r0, #32]
 151:robotmove.c   ****     pid_data->previous_error = 0;    
 471              		.loc 1 151 0
 472 001c C0E90623 		strd	r2, [r0, #24]
 473 0020 7047     		bx	lr
 474              		.cfi_endproc
 475              	.LFE69:
 476              		.size	PID_initialise, .-PID_initialise
 477              		.global	__aeabi_dsub
 478 0022 00BF     		.section	.text.PID_update,"ax",%progbits
 479              		.align	2
 480              		.global	PID_update
 481              		.thumb
 482              		.thumb_func
 483              		.type	PID_update, %function
 484              	PID_update:
 485              	.LFB70:
 152:robotmove.c   **** }
 153:robotmove.c   **** /* Function: PID_Update
 154:robotmove.c   ****  * Purpose: Calculates the actuator value to be provided to the robot_move function based on the se
 155:robotmove.c   ****  *          velocity and target velocities desired.  These can be either of linear or angular veloc
 156:robotmove.c   ****  *          though the gains for each of these components will be different.
 157:robotmove.c   ****  * Inputs: PID_DATA *pid_data: a pointer to the PID_DATA structure to read from
 158:robotmove.c   ****  *         double sensed_velocity: the sensed angular/linear velocity from the encoder
 159:robotmove.c   ****  *         double target_velocity: the desired velocity of the sensed_velocity.
 160:robotmove.c   ****  *    
 161:robotmove.c   ****  * Outputs: double - the actuator value [either an angular or linear velocity depending on the inpu
 162:robotmove.c   ****  *                   to be used in moving the robot.
 163:robotmove.c   ****  *                      
 164:robotmove.c   ****  */
 165:robotmove.c   **** double PID_update(PID_DATA *pid_data, double sensed_velocity, double target_velocity){
 486              		.loc 1 165 0
 487              		.cfi_startproc
 488              		@ args = 8, pretend = 0, frame = 8
 489              		@ frame_needed = 0, uses_anonymous_args = 0
 490              	.LVL67:
 491 0000 2DE9F047 		push	{r4, r5, r6, r7, r8, r9, r10, lr}
 492              		.cfi_def_cfa_offset 32
 493              		.cfi_offset 4, -32
 494              		.cfi_offset 5, -28
 495              		.cfi_offset 6, -24
ARM GAS  C:\Users\bscj\AppData\Local\Temp\ccTsJ6o3.s 			page 13


 496              		.cfi_offset 7, -20
 497              		.cfi_offset 8, -16
 498              		.cfi_offset 9, -12
 499              		.cfi_offset 10, -8
 500              		.cfi_offset 14, -4
 501 0004 82B0     		sub	sp, sp, #8
 502              		.cfi_def_cfa_offset 40
 503 0006 8246     		mov	r10, r0
 166:robotmove.c   **** 
 167:robotmove.c   ****     double Pterm, Dterm, Iterm;
 168:robotmove.c   ****     
 169:robotmove.c   ****     //Determine the error between the sensed and target velocities
 170:robotmove.c   ****     double error = target_velocity - sensed_velocity;
 504              		.loc 1 170 0
 505 0008 DDE90A01 		ldrd	r0, [sp, #40]
 506              	.LVL68:
 507 000c FFF7FEFF 		bl	__aeabi_dsub
 508              	.LVL69:
 509 0010 0446     		mov	r4, r0
 510 0012 0D46     		mov	r5, r1
 511              	.LVL70:
 171:robotmove.c   ****     double error_difference = error - pid_data->previous_error;
 512              		.loc 1 171 0
 513 0014 DAE90623 		ldrd	r2, [r10, #24]
 514 0018 FFF7FEFF 		bl	__aeabi_dsub
 515              	.LVL71:
 516 001c 8046     		mov	r8, r0
 517 001e 8946     		mov	r9, r1
 518              	.LVL72:
 172:robotmove.c   ****     
 173:robotmove.c   ****     //Update the sum term
 174:robotmove.c   ****     pid_data->error_sum += error;
 519              		.loc 1 174 0
 520 0020 DAE90823 		ldrd	r2, [r10, #32]
 521 0024 2046     		mov	r0, r4
 522 0026 2946     		mov	r1, r5
 523 0028 FFF7FEFF 		bl	__aeabi_dadd
 524              	.LVL73:
 525 002c 0646     		mov	r6, r0
 526 002e 0F46     		mov	r7, r1
 527 0030 CAE90867 		strd	r6, [r10, #32]
 175:robotmove.c   ****     
 176:robotmove.c   ****     Pterm = pid_data->Pgain * error;
 528              		.loc 1 176 0
 529 0034 DAE90023 		ldrd	r2, [r10]
 530 0038 2046     		mov	r0, r4
 531 003a 2946     		mov	r1, r5
 532 003c FFF7FEFF 		bl	__aeabi_dmul
 533              	.LVL74:
 534 0040 CDE90001 		strd	r0, [sp]
 535              	.LVL75:
 177:robotmove.c   ****     Dterm = pid_data->Dgain * error_difference;
 536              		.loc 1 177 0
 537 0044 DAE90223 		ldrd	r2, [r10, #8]
 538 0048 4046     		mov	r0, r8
 539              	.LVL76:
 540 004a 4946     		mov	r1, r9
ARM GAS  C:\Users\bscj\AppData\Local\Temp\ccTsJ6o3.s 			page 14


 541 004c FFF7FEFF 		bl	__aeabi_dmul
 542              	.LVL77:
 543 0050 8046     		mov	r8, r0
 544              	.LVL78:
 545 0052 8946     		mov	r9, r1
 546              	.LVL79:
 178:robotmove.c   ****     Iterm = pid_data->Igain * pid_data->error_sum;
 547              		.loc 1 178 0
 548 0054 DAE90423 		ldrd	r2, [r10, #16]
 549 0058 3046     		mov	r0, r6
 550 005a 3946     		mov	r1, r7
 551 005c FFF7FEFF 		bl	__aeabi_dmul
 552              	.LVL80:
 553 0060 0646     		mov	r6, r0
 554 0062 0F46     		mov	r7, r1
 555              	.LVL81:
 179:robotmove.c   ****     
 180:robotmove.c   ****     //Update the error term in pid_data
 181:robotmove.c   ****     pid_data->previous_error = error;
 556              		.loc 1 181 0
 557 0064 CAE90645 		strd	r4, [r10, #24]
 182:robotmove.c   ****     
 183:robotmove.c   ****     return Pterm + Dterm + Iterm;
 558              		.loc 1 183 0
 559 0068 4246     		mov	r2, r8
 560 006a 4B46     		mov	r3, r9
 561 006c DDE90001 		ldrd	r0, [sp]
 562 0070 FFF7FEFF 		bl	__aeabi_dadd
 563              	.LVL82:
 564 0074 0246     		mov	r2, r0
 565 0076 0B46     		mov	r3, r1
 566 0078 3046     		mov	r0, r6
 567 007a 3946     		mov	r1, r7
 568 007c FFF7FEFF 		bl	__aeabi_dadd
 569              	.LVL83:
 184:robotmove.c   **** }
 570              		.loc 1 184 0
 571 0080 02B0     		add	sp, sp, #8
 572              		.cfi_def_cfa_offset 32
 573              	.LVL84:
 574              		@ sp needed
 575 0082 BDE8F087 		pop	{r4, r5, r6, r7, r8, r9, r10, pc}
 576              		.cfi_endproc
 577              	.LFE70:
 578              		.size	PID_update, .-PID_update
 579 0086 00BF     		.text
 580              	.Letext0:
 581              		.file 2 "c:\\program files (x86)\\cypress\\psoc creator\\4.4\\psoc creator\\import\\gnu\\arm\\5.4.
 582              		.file 3 "c:\\program files (x86)\\cypress\\psoc creator\\4.4\\psoc creator\\import\\gnu\\arm\\5.4.
 583              		.file 4 "robotmove.h"
 584              		.file 5 "Generated_Source\\PSoC5/PWM_R.h"
 585              		.file 6 "Generated_Source\\PSoC5/PWM_L.h"
 586              		.file 7 "encoder.h"
 587              		.file 8 "Generated_Source\\PSoC5/core_cm3.h"